(dp0
S'METTS MARK'
p1
(dp2
S'to_messages'
p3
I807
sS'squared_salary'
p4
F133800860944.0
sS'deferral_payments'
p5
I0
sS'squared_from_poi_to_this_person_ratio'
p6
F1.7170035671819261
sS'expenses'
p7
I94299
sS'squared_expenses'
p8
F8892301401.0
sS'poi'
p9
I00
sS'deferred_income'
p10
I0
sS'email_address'
p11
S'mark.metts@enron.com'
p12
sS'long_term_incentive'
p13
I0
sS'from_poi_to_this_person_ratio'
p14
F1.3103448275862069
sS'squared_salary_ratio'
p15
F0.11867285189176299
sS'restricted_stock_deferred'
p16
I0
sS'squared_bonus'
p17
F360000000000.0
sS'shared_receipt_with_poi'
p18
I702
sS'loan_advances'
p19
I0
sS'from_messages'
p20
I29
sS'other'
p21
I1740
sS'squared_bonus_ratio'
p22
F0.31929709853597515
sS'director_fees'
p23
I0
sS'squared_restricted_stock_ratio'
p24
F1.0
sS'bonus'
p25
I600000
sS'expenses_ratio'
p26
F0.08880825219174121
sS'squared_from_this_person_to_poi_ratio'
p27
F1.5355109950264799e-06
sS'total_stock_value'
p28
I585062
sS'from_poi_to_this_person'
p29
I38
sS'squared_expenses_ratio'
p30
F0.007886905657351907
sS'from_this_person_to_poi'
p31
I1
sS'restricted_stock'
p32
I585062
sS'restricted_stock_ratio'
p33
F1.0
sS'salary'
p34
I365788
sS'bonus_ratio'
p35
F0.5650638004119315
sS'total_payments'
p36
I1061827
sS'salary_ratio'
p37
F0.34448926237513267
sS'squared_exercised_stock_options_ratio'
p38
F0.0
sS'exercised_stock_options'
p39
I0
sS'from_this_person_to_poi_ratio'
p40
F0.0012391573729863693
sS'exercised_stock_options_ratio'
p41
F0.0
ssS'BAXTER JOHN C'
p42
(dp43
g3
I0
sS'squared_salary'
p44
F71343478404.0
sg5
I1295738
sS'squared_from_poi_to_this_person_ratio'
p45
F0.0
sg7
I11200
sS'squared_expenses'
p46
F125440000.0
sg9
I00
sg10
I1386055
sg11
I0
sg13
I1586055
sS'from_poi_to_this_person_ratio'
p47
F0.0
sS'squared_salary_ratio'
p48
F0.0022473344857076075
sg16
I0
sS'squared_bonus'
p49
F1440000000000.0
sg18
I0
sg19
I0
sg20
I0
sg21
I2660303
sS'squared_bonus_ratio'
p50
F0.045360301064848466
sg23
I0
sS'squared_restricted_stock_ratio'
p51
F0.1377447616621445
sg25
I1200000
sS'expenses_ratio'
p52
F0.001987809403864834
sS'squared_from_this_person_to_poi_ratio'
p53
F0.0
sg28
I10623258
sg29
I0
sS'squared_expenses_ratio'
p54
F3.9513862260934665e-06
sg31
I0
sg32
I3942714
sS'restricted_stock_ratio'
p55
F0.3711398141700032
sg34
I267102
sS'bonus_ratio'
p56
F0.21297957898551792
sg36
I5634343
sS'salary_ratio'
p57
F0.047406059588491506
sS'squared_exercised_stock_options_ratio'
p58
F0.3954651333221381
sg39
I6680544
sS'from_this_person_to_poi_ratio'
p59
F0.0
sS'exercised_stock_options_ratio'
p60
F0.6288601858299968
ssS'ELLIOTT STEVEN'
p61
(dp62
g3
I0
sS'squared_salary'
p63
F29220825481.0
sg5
I0
sS'squared_from_poi_to_this_person_ratio'
p64
F0.0
sg7
I78552
sS'squared_expenses'
p65
F6170416704.0
sg9
I00
sg10
I400729
sg11
S'steven.elliott@enron.com'
p66
sg13
I0
sS'from_poi_to_this_person_ratio'
p67
F0.0
sS'squared_salary_ratio'
p68
F0.6518507918100063
sg16
I0
sS'squared_bonus'
p69
F122500000000.0
sg18
I0
sg19
I0
sg20
I0
sg21
I12961
sS'squared_bonus_ratio'
p70
F2.7326990487878935
sg23
I0
sS'squared_restricted_stock_ratio'
p71
F0.071702868095222
sg25
I350000
sS'expenses_ratio'
p72
F0.371009564293305
sS'squared_from_this_person_to_poi_ratio'
p73
F0.0
sg28
I6678735
sg29
I0
sS'squared_expenses_ratio'
p74
F0.13764809679710802
sg31
I0
sg32
I1788391
sS'restricted_stock_ratio'
p75
F0.2677739122753036
sg34
I170941
sS'bonus_ratio'
p76
F1.6530877317274766
sg36
I211725
sS'salary_ratio'
p77
F0.8073727712835046
sS'squared_exercised_stock_options_ratio'
p78
F0.5361550435446146
sg39
I4890344
sS'from_this_person_to_poi_ratio'
p79
F0.0
sS'exercised_stock_options_ratio'
p80
F0.7322260877246963
ssS'CORDES WILLIAM R'
p81
(dp82
g3
I764
sS'squared_salary'
p83
F0.0
sg5
I0
sS'squared_from_poi_to_this_person_ratio'
p84
F0.6944444444444445
sg7
I0
sS'squared_expenses'
p85
F0.0
sg9
I00
sg10
I0
sg11
S'bill.cordes@enron.com'
p86
sg13
I0
sS'from_poi_to_this_person_ratio'
p87
F0.8333333333333334
sS'squared_salary_ratio'
p88
F0.0
sg16
I0
sS'squared_bonus'
p89
F0.0
sg18
I58
sg19
I0
sg20
I12
sg21
I0
sS'squared_bonus_ratio'
p90
F0.0
sg23
I0
sS'squared_restricted_stock_ratio'
p91
F0.13847730730411134
sg25
I0
sS'expenses_ratio'
p92
F0.0
sS'squared_from_this_person_to_poi_ratio'
p93
F0.0
sg28
I1038185
sg29
I10
sS'squared_expenses_ratio'
p94
F0.0
sg31
I0
sg32
I386335
sS'restricted_stock_ratio'
p95
F0.3721253919099197
sg34
I0
sS'bonus_ratio'
p96
F0.0
sg36
I0
sS'salary_ratio'
p97
F0.0
sS'squared_exercised_stock_options_ratio'
p98
F0.39422652348427195
sg39
I651850
sS'from_this_person_to_poi_ratio'
p99
F0.0
sS'exercised_stock_options_ratio'
p100
F0.6278746080900803
ssS'HANNON KEVIN P'
p101
(dp102
g3
I1045
sS'squared_salary'
p103
F59191483849.0
sg5
I0
sS'squared_from_poi_to_this_person_ratio'
p104
F1.0
sg7
I34039
sS'squared_expenses'
p105
F1158653521.0
sg9
I01
sg10
I3117011
sg11
S'kevin.hannon@enron.com'
p106
sg13
I1617011
sS'from_poi_to_this_person_ratio'
p107
F1.0
sS'squared_salary_ratio'
p108
F0.7102640221331784
sg16
I0
sS'squared_bonus'
p109
F2250000000000.0
sg18
I1035
sg19
I0
sg20
I32
sg21
I11350
sS'squared_bonus_ratio'
p110
F26.99871579290794
sg23
I0
sS'squared_restricted_stock_ratio'
p111
F0.017816268964768983
sg25
I1500000
sS'expenses_ratio'
p112
F0.11791175064603959
sS'squared_from_this_person_to_poi_ratio'
p113
F0.0004038369084956846
sg28
I6391065
sg29
I32
sS'squared_expenses_ratio'
p114
F0.013903180940413819
sg31
I21
sg32
I853064
sS'restricted_stock_ratio'
p115
F0.13347759723927077
sg34
I243293
sS'bonus_ratio'
p116
F5.196028848352166
sg36
I288682
sS'salary_ratio'
p117
F0.8427716310680957
sS'squared_exercised_stock_options_ratio'
p118
F0.7508610744862274
sg39
I5538001
sS'from_this_person_to_poi_ratio'
p119
F0.020095693779904306
sS'exercised_stock_options_ratio'
p120
F0.8665224027607292
ssS'MORDAUNT KRISTINA M'
p121
(dp122
g3
I0
sS'squared_salary'
p123
F71338670649.0
sg5
I0
sS'squared_from_poi_to_this_person_ratio'
p124
F0.0
sg7
I35018
sS'squared_expenses'
p125
F1226260324.0
sg9
I00
sg10
I0
sg11
S'kristina.mordaunt@enron.com'
p126
sg13
I0
sS'from_poi_to_this_person_ratio'
p127
F0.0
sS'squared_salary_ratio'
p128
F0.1805859859706638
sg16
I0
sS'squared_bonus'
p129
F105625000000.0
sg18
I0
sg19
I0
sg20
I0
sg21
I1411
sS'squared_bonus_ratio'
p130
F0.2673780516881379
sg23
I0
sS'squared_restricted_stock_ratio'
p131
F1.0
sg25
I325000
sS'expenses_ratio'
p132
F0.05571483575753912
sS'squared_from_this_person_to_poi_ratio'
p133
F0.0
sg28
I208510
sg29
I0
sS'squared_expenses_ratio'
p134
F0.0031041429234895594
sg31
I0
sg32
I208510
sS'restricted_stock_ratio'
p135
F1.0
sg34
I267093
sS'bonus_ratio'
p136
F0.5170861163173286
sg36
I628522
sS'salary_ratio'
p137
F0.42495409866321304
sS'squared_exercised_stock_options_ratio'
p138
F0.0
sg39
I0
sS'from_this_person_to_poi_ratio'
p139
F0.0
sS'exercised_stock_options_ratio'
p140
F0.0
ssS'MEYER ROCKFORD G'
p141
(dp142
g3
I232
sS'squared_salary'
p143
F0.0
sg5
I1848227
sS'squared_from_poi_to_this_person_ratio'
p144
F0.0
sg7
I0
sS'squared_expenses'
p145
F0.0
sg9
I00
sg10
I0
sg11
S'rockford.meyer@enron.com'
p146
sg13
I0
sS'from_poi_to_this_person_ratio'
p147
F0.0
sS'squared_salary_ratio'
p148
F0.0
sg16
I0
sS'squared_bonus'
p149
F0.0
sg18
I22
sg19
I0
sg20
I28
sg21
I0
sS'squared_bonus_ratio'
p150
F0.0
sg23
I0
sS'squared_restricted_stock_ratio'
p151
F0.2339942612003338
sg25
I0
sS'expenses_ratio'
p152
F0.0
sS'squared_from_this_person_to_poi_ratio'
p153
F0.0
sg28
I955873
sg29
I0
sS'squared_expenses_ratio'
p154
F0.0
sg31
I0
sg32
I462384
sS'restricted_stock_ratio'
p155
F0.4837295331074316
sg34
I0
sS'bonus_ratio'
p156
F0.0
sg36
I1848227
sS'salary_ratio'
p157
F0.0
sS'squared_exercised_stock_options_ratio'
p158
F0.26653519498547057
sg39
I493489
sS'from_this_person_to_poi_ratio'
p159
F0.0
sS'exercised_stock_options_ratio'
p160
F0.5162704668925684
ssS'MCMAHON JEFFREY'
p161
(dp162
g3
I2355
sS'squared_salary'
p163
F137231720704.0
sg5
I0
sS'squared_from_poi_to_this_person_ratio'
p164
F1.4600694444444442
sg7
I137108
sS'squared_expenses'
p165
F18798603664.0
sg9
I00
sg10
I0
sg11
S'jeffrey.mcmahon@enron.com'
p166
sg13
I694862
sS'from_poi_to_this_person_ratio'
p167
F1.2083333333333333
sS'squared_salary_ratio'
p168
F0.008164607482199281
sg16
I0
sS'squared_bonus'
p169
F6760000000000.0
sg18
I2228
sg19
I0
sg20
I48
sg21
I297353
sS'squared_bonus_ratio'
p170
F0.4021865083125667
sg23
I0
sS'squared_restricted_stock_ratio'
p171
F0.11292902744742013
sg25
I2600000
sS'expenses_ratio'
p172
F0.033442843514918275
sS'squared_from_this_person_to_poi_ratio'
p173
F0.00012188910075234062
sg28
I1662855
sg29
I58
sS'squared_expenses_ratio'
p174
F0.0011184237823633112
sg31
I26
sg32
I558801
sS'restricted_stock_ratio'
p175
F0.3360491443932273
sg34
I370448
sS'bonus_ratio'
p176
F0.6341817628350461
sg36
I4099771
sS'salary_ratio'
p177
F0.09035821756873738
sS'squared_exercised_stock_options_ratio'
p178
F0.4408307386609655
sg39
I1104054
sS'from_this_person_to_poi_ratio'
p179
F0.011040339702760084
sS'exercised_stock_options_ratio'
p180
F0.6639508556067727
ssS'HORTON STANLEY C'
p181
(dp182
g3
I2350
sS'squared_salary'
p183
F0.0
sg5
I3131860
sS'squared_from_poi_to_this_person_ratio'
p184
F0.0016815349913013571
sg7
I0
sS'squared_expenses'
p185
F0.0
sg9
I00
sg10
I0
sg11
S'stanley.horton@enron.com'
p186
sg13
I0
sS'from_poi_to_this_person_ratio'
p187
F0.04100652376514446
sS'squared_salary_ratio'
p188
F0.0
sg16
I0
sS'squared_bonus'
p189
F0.0
sg18
I1074
sg19
I0
sg20
I1073
sg21
I0
sS'squared_bonus_ratio'
p190
F0.0
sg23
I0
sS'squared_restricted_stock_ratio'
p191
F0.07950101651621609
sg25
I0
sS'expenses_ratio'
p192
F0.0
sS'squared_from_this_person_to_poi_ratio'
p193
F4.074241738343141e-05
sg28
I7256648
sg29
I44
sS'squared_expenses_ratio'
p194
F0.0
sg31
I15
sg32
I2046079
sS'restricted_stock_ratio'
p195
F0.28195924619741786
sg34
I0
sS'bonus_ratio'
p196
F0.0
sg36
I3131860
sS'salary_ratio'
p197
F0.0
sS'squared_exercised_stock_options_ratio'
p198
F0.5155825241213804
sg39
I5210569
sS'from_this_person_to_poi_ratio'
p199
F0.006382978723404255
sS'exercised_stock_options_ratio'
p200
F0.7180407538025821
ssS'PIPER GREGORY F'
p201
(dp202
g3
I1238
sS'squared_salary'
p203
F38844862281.0
sg5
I1130036
sS'squared_from_poi_to_this_person_ratio'
p204
F0.07550117685252822
sg7
I43057
sS'squared_expenses'
p205
F1853905249.0
sg9
I00
sg10
I33333
sg11
S'greg.piper@enron.com'
p206
sg13
I0
sS'from_poi_to_this_person_ratio'
p207
F0.2747747747747748
sS'squared_salary_ratio'
p208
F0.012865286850310749
sg16
I409554
sS'squared_bonus'
p209
F160000000000.0
sg18
I742
sg19
I0
sg20
I222
sg21
I778
sS'squared_bonus_ratio'
p210
F0.052991458205183486
sg23
I0
sS'squared_restricted_stock_ratio'
p211
F0.2164565873835233
sg25
I400000
sS'expenses_ratio'
p212
F0.024779167474760146
sS'squared_from_this_person_to_poi_ratio'
p213
F0.0015032845200842464
sg28
I880290
sg29
I61
sS'squared_expenses_ratio'
p214
F0.0006140071407422111
sg31
I48
sg32
I409554
sS'restricted_stock_ratio'
p215
F0.46524895204989264
sg34
I197091
sS'bonus_ratio'
p216
F0.23019873632403695
sg36
I1737629
sS'salary_ratio'
p217
F0.11342524785210191
sS'squared_exercised_stock_options_ratio'
p218
F1.0
sg39
I880290
sS'from_this_person_to_poi_ratio'
p219
F0.03877221324717286
sS'exercised_stock_options_ratio'
p220
F1.0
ssS'HUMPHREY GENE E'
p221
(dp222
g3
I128
sS'squared_salary'
p223
F17088764176.0
sg5
I2964506
sS'squared_from_poi_to_this_person_ratio'
p224
F0.34602076124567477
sg7
I4994
sS'squared_expenses'
p225
F24940036.0
sg9
I00
sg10
I0
sg11
S'gene.humphrey@enron.com'
p226
sg13
I0
sS'from_poi_to_this_person_ratio'
p227
F0.5882352941176471
sS'squared_salary_ratio'
p228
F0.0017779703269093184
sg16
I0
sS'squared_bonus'
p229
F0.0
sg18
I119
sg19
I0
sg20
I17
sg21
I0
sS'squared_bonus_ratio'
p230
F0.0
sg23
I0
sS'squared_restricted_stock_ratio'
p231
F0.0
sg25
I0
sS'expenses_ratio'
p232
F0.0016108513449350757
sS'squared_from_this_person_to_poi_ratio'
p233
F0.01763916015625
sg28
I2282768
sg29
I10
sS'squared_expenses_ratio'
p234
F2.5948420554791423e-06
sg31
I17
sg32
I0
sS'restricted_stock_ratio'
p235
F0.0
sg34
I130724
sS'bonus_ratio'
p236
F0.0
sg36
I3100224
sS'salary_ratio'
p237
F0.04216598542556925
sS'squared_exercised_stock_options_ratio'
p238
F1.0
sg39
I2282768
sS'from_this_person_to_poi_ratio'
p239
F0.1328125
sS'exercised_stock_options_ratio'
p240
F1.0
ssS'UMANOFF ADAM S'
p241
(dp242
g3
I111
sS'squared_salary'
p243
F83283610921.0
sg5
I0
sS'squared_from_poi_to_this_person_ratio'
p244
F0.4444444444444444
sg7
I53122
sS'squared_expenses'
p245
F2821946884.0
sg9
I00
sg10
I0
sg11
S'adam.umanoff@enron.com'
p246
sg13
I0
sS'from_poi_to_this_person_ratio'
p247
F0.6666666666666666
sS'squared_salary_ratio'
p248
F0.0651700986389048
sg16
I0
sS'squared_bonus'
p249
F622126562500.0
sg18
I41
sg19
I0
sg20
I18
sg21
I0
sS'squared_bonus_ratio'
p250
F0.48681906314636714
sg23
I0
sS'squared_restricted_stock_ratio'
p251
F0.0
sg25
I788750
sS'expenses_ratio'
p252
F0.04699144862140313
sS'squared_from_this_person_to_poi_ratio'
p253
F0.0
sg28
I0
sg29
I12
sS'squared_expenses_ratio'
p254
F0.00220819624353797
sg31
I0
sg32
I0
sS'restricted_stock_ratio'
p255
F0.0
sg34
I288589
sS'bonus_ratio'
p256
F0.6977242027809893
sg36
I1130461
sS'salary_ratio'
p257
F0.2552843485976075
sS'squared_exercised_stock_options_ratio'
p258
F0.0
sg39
I0
sS'from_this_person_to_poi_ratio'
p259
F0.0
sS'exercised_stock_options_ratio'
p260
F0.0
ssS'BLACHMAN JEREMY M'
p261
(dp262
g3
I2475
sS'squared_salary'
p263
F61775114116.0
sg5
I0
sS'squared_from_poi_to_this_person_ratio'
p264
F3.188775510204082
sg7
I84208
sS'squared_expenses'
p265
F7090987264.0
sg9
I00
sg10
I0
sg11
S'jeremy.blachman@enron.com'
p266
sg13
I831809
sS'from_poi_to_this_person_ratio'
p267
F1.7857142857142858
sS'squared_salary_ratio'
p268
F0.015217194213375878
sg16
I0
sS'squared_bonus'
p269
F722500000000.0
sg18
I2326
sg19
I0
sg20
I14
sg21
I272
sS'squared_bonus_ratio'
p270
F0.17797494956494905
sg23
I0
sS'squared_restricted_stock_ratio'
p271
F0.03923674895089216
sg25
I850000
sS'expenses_ratio'
p272
F0.04179399305650339
sS'squared_from_this_person_to_poi_ratio'
p273
F6.529945923885318e-07
sg28
I954354
sg29
I25
sS'squared_expenses_ratio'
p274
F0.0017467378556070532
sg31
I2
sg32
I189041
sS'restricted_stock_ratio'
p275
F0.19808268210747793
sg34
I248546
sS'bonus_ratio'
p276
F0.4218707735372872
sg36
I2014835
sS'salary_ratio'
p277
F0.12335799209364538
sS'squared_exercised_stock_options_ratio'
p278
F0.6430713847359363
sg39
I765313
sS'from_this_person_to_poi_ratio'
p279
F0.0008080808080808081
sS'exercised_stock_options_ratio'
p280
F0.8019173178925221
ssS'SUNDE MARTIN'
p281
(dp282
g3
I2647
sS'squared_salary'
p283
F66299040196.0
sg5
I0
sS'squared_from_poi_to_this_person_ratio'
p284
F0.948060941828255
sg7
I0
sS'squared_expenses'
p285
F0.0
sg9
I00
sg10
I0
sg11
S'marty.sunde@enron.com'
p286
sg13
I476451
sS'from_poi_to_this_person_ratio'
p287
F0.9736842105263158
sS'squared_salary_ratio'
p288
F0.027772636176840233
sg16
I0
sS'squared_bonus'
p289
F490000000000.0
sg18
I2565
sg19
I0
sg20
I38
sg21
I111122
sS'squared_bonus_ratio'
p290
F0.20526076526026024
sg23
I0
sS'squared_restricted_stock_ratio'
p291
F1.0
sg25
I700000
sS'expenses_ratio'
p292
F0.0
sS'squared_from_this_person_to_poi_ratio'
p293
F2.4120084337516195e-05
sg28
I698920
sg29
I37
sS'squared_expenses_ratio'
p294
F0.0
sg31
I13
sg32
I698920
sS'restricted_stock_ratio'
p295
F1.0
sg34
I257486
sS'bonus_ratio'
p296
F0.4530571324460749
sg36
I1545059
sS'salary_ratio'
p297
F0.16665124115001434
sS'squared_exercised_stock_options_ratio'
p298
F0.0
sg39
I0
sS'from_this_person_to_poi_ratio'
p299
F0.004911220249338874
sS'exercised_stock_options_ratio'
p300
F0.0
ssS'GIBBS DANA R'
p301
(dp302
g3
I169
sS'squared_salary'
p303
F0.0
sg5
I504610
sS'squared_from_poi_to_this_person_ratio'
p304
F0.0
sg7
I0
sS'squared_expenses'
p305
F0.0
sg9
I00
sg10
I0
sg11
S'dana.gibbs@enron.com'
p306
sg13
I461912
sS'from_poi_to_this_person_ratio'
p307
F0.0
sS'squared_salary_ratio'
p308
F0.0
sg16
I0
sS'squared_bonus'
p309
F0.0
sg18
I23
sg19
I0
sg20
I12
sg21
I0
sS'squared_bonus_ratio'
p310
F0.0
sg23
I0
sS'squared_restricted_stock_ratio'
p311
F0.0
sg25
I0
sS'expenses_ratio'
p312
F0.0
sS'squared_from_this_person_to_poi_ratio'
p313
F0.0
sg28
I2218275
sg29
I0
sS'squared_expenses_ratio'
p314
F0.0
sg31
I0
sg32
I0
sS'restricted_stock_ratio'
p315
F0.0
sg34
I0
sS'bonus_ratio'
p316
F0.0
sg36
I966522
sS'salary_ratio'
p317
F0.0
sS'squared_exercised_stock_options_ratio'
p318
F1.0
sg39
I2218275
sS'from_this_person_to_poi_ratio'
p319
F0.0
sS'exercised_stock_options_ratio'
p320
F1.0
ssS'LOWRY CHARLES P'
p321
(dp322
g3
I0
sS'squared_salary'
p323
F0.0
sg5
I0
sS'squared_from_poi_to_this_person_ratio'
p324
F0.0
sg7
I0
sS'squared_expenses'
p325
F0.0
sg9
I00
sg10
I0
sg11
I0
sg13
I0
sS'from_poi_to_this_person_ratio'
p326
F0.0
sS'squared_salary_ratio'
p327
F0.0
sg16
I153686
sS'squared_bonus'
p328
F0.0
sg18
I0
sg19
I0
sg20
I0
sg21
I0
sS'squared_bonus_ratio'
p329
F0.0
sg23
I0
sS'squared_restricted_stock_ratio'
p330
F0.17049207985786236
sg25
I0
sS'expenses_ratio'
p331
F0.0
sS'squared_from_this_person_to_poi_ratio'
p332
F0.0
sg28
I372205
sg29
I0
sS'squared_expenses_ratio'
p333
F0.0
sg31
I0
sg32
I153686
sS'restricted_stock_ratio'
p334
F0.41290686584006125
sg34
I0
sS'bonus_ratio'
p335
F0.0
sg36
I0
sS'salary_ratio'
p336
F0.0
sS'squared_exercised_stock_options_ratio'
p337
F1.0
sg39
I372205
sS'from_this_person_to_poi_ratio'
p338
F0.0
sS'exercised_stock_options_ratio'
p339
F1.0
ssS'COLWELL WESLEY'
p340
(dp341
g3
I1758
sS'squared_salary'
p342
F83256485764.0
sg5
I27610
sS'squared_from_poi_to_this_person_ratio'
p343
F36.0
sg7
I16514
sS'squared_expenses'
p344
F272712196.0
sg9
I01
sg10
I144062
sg11
S'wes.colwell@enron.com'
p345
sg13
I0
sS'from_poi_to_this_person_ratio'
p346
F6.0
sS'squared_salary_ratio'
p347
F0.03748392226022034
sg16
I0
sS'squared_bonus'
p348
F1440000000000.0
sg18
I1132
sg19
I0
sg20
I40
sg21
I101740
sS'squared_bonus_ratio'
p349
F0.6483200384859003
sg23
I0
sS'squared_restricted_stock_ratio'
p350
F1.0
sg25
I1200000
sS'expenses_ratio'
p351
F0.011080663256268351
sS'squared_from_this_person_to_poi_ratio'
p352
F3.91514299655338e-05
sg28
I698242
sg29
I240
sS'squared_expenses_ratio'
p353
F0.00012278109819881554
sg31
I11
sg32
I698242
sS'restricted_stock_ratio'
p354
F1.0
sg34
I288542
sS'bonus_ratio'
p355
F0.8051832328643588
sg36
I1490344
sS'salary_ratio'
p356
F0.19360765031428986
sS'squared_exercised_stock_options_ratio'
p357
F0.0
sg39
I0
sS'from_this_person_to_poi_ratio'
p358
F0.006257110352673493
sS'exercised_stock_options_ratio'
p359
F0.0
ssS'MULLER MARK S'
p360
(dp361
g3
I136
sS'squared_salary'
p362
F63329735716.0
sg5
I842924
sS'squared_from_poi_to_this_person_ratio'
p363
F0.5625
sg7
I0
sS'squared_expenses'
p364
F0.0
sg9
I00
sg10
I719000
sg11
S's..muller@enron.com'
p365
sg13
I1725545
sS'from_poi_to_this_person_ratio'
p366
F0.75
sS'squared_salary_ratio'
p367
F0.006176551006090615
sg16
I0
sS'squared_bonus'
p368
F1210000000000.0
sg18
I114
sg19
I0
sg20
I16
sg21
I947
sS'squared_bonus_ratio'
p369
F0.11801133595259047
sg23
I0
sS'squared_restricted_stock_ratio'
p370
F0.06474876299595386
sg25
I1100000
sS'expenses_ratio'
p371
F0.0
sS'squared_from_this_person_to_poi_ratio'
p372
F0.0
sg28
I1416848
sg29
I12
sS'squared_expenses_ratio'
p373
F0.0
sg31
I0
sg32
I360528
sS'restricted_stock_ratio'
p374
F0.2544577823450363
sg34
I251654
sS'bonus_ratio'
p375
F0.3435277804670104
sg36
I3202070
sS'salary_ratio'
p376
F0.07859103642331366
sS'squared_exercised_stock_options_ratio'
p377
F0.5558331983058812
sg39
I1056320
sS'from_this_person_to_poi_ratio'
p378
F0.0
sS'exercised_stock_options_ratio'
p379
F0.7455422176549636
ssS'JACKSON CHARLENE R'
p380
(dp381
g3
I258
sS'squared_salary'
p382
F83265719364.0
sg5
I0
sS'squared_from_poi_to_this_person_ratio'
p383
F0.1992984693877551
sg7
I10181
sS'squared_expenses'
p384
F103652761.0
sg9
I00
sg10
I0
sg11
S'charlene.jackson@enron.com'
p385
sg13
I0
sS'from_poi_to_this_person_ratio'
p386
F0.44642857142857145
sS'squared_salary_ratio'
p387
F0.2740872243129886
sg16
I0
sS'squared_bonus'
p388
F62500000000.0
sg18
I117
sg19
I0
sg20
I56
sg21
I2435
sS'squared_bonus_ratio'
p389
F0.20573234279854363
sg23
I0
sS'squared_restricted_stock_ratio'
p390
F0.5550238194733003
sg25
I250000
sS'expenses_ratio'
p391
F0.01847148087536785
sS'squared_from_this_person_to_poi_ratio'
p392
F0.005423351962021514
sg28
I725735
sg29
I25
sS'squared_expenses_ratio'
p393
F0.0003411956057290802
sg31
I19
sg32
I540672
sS'restricted_stock_ratio'
p394
F0.7449992076997802
sg34
I288558
sS'bonus_ratio'
p395
F0.453577273238578
sg36
I551174
sS'salary_ratio'
p396
F0.5235334032447104
sS'squared_exercised_stock_options_ratio'
p397
F0.06502540407373983
sg39
I185063
sS'from_this_person_to_poi_ratio'
p398
F0.07364341085271318
sS'exercised_stock_options_ratio'
p399
F0.25500079230021977
ssS'WESTFAHL RICHARD K'
p400
(dp401
g3
I0
sS'squared_salary'
p402
F4063297536.0
sg5
I0
sS'squared_from_poi_to_this_person_ratio'
p403
F0.0
sg7
I51870
sS'squared_expenses'
p404
F2690496900.0
sg9
I00
sg10
I10800
sg11
S'dick.westfahl@enron.com'
p405
sg13
I256191
sS'from_poi_to_this_person_ratio'
p406
F0.0
sS'squared_salary_ratio'
p407
F0.006995436390327335
sg16
I0
sS'squared_bonus'
p408
F0.0
sg18
I0
sg19
I0
sg20
I0
sg21
I401130
sS'squared_bonus_ratio'
p409
F0.0
sg23
I0
sS'squared_restricted_stock_ratio'
p410
F1.0
sg25
I0
sS'expenses_ratio'
p411
F0.06805880847881281
sS'squared_from_this_person_to_poi_ratio'
p412
F0.0
sg28
I384930
sg29
I0
sS'squared_expenses_ratio'
p413
F0.004632001411555722
sg31
I0
sg32
I384930
sS'restricted_stock_ratio'
p414
F1.0
sg34
I63744
sS'bonus_ratio'
p415
F0.0
sg36
I762135
sS'salary_ratio'
p416
F0.08363872542266133
sS'squared_exercised_stock_options_ratio'
p417
F0.0
sg39
I0
sS'from_this_person_to_poi_ratio'
p418
F0.0
sS'exercised_stock_options_ratio'
p419
F0.0
ssS'WALTERS GARETH W'
p420
(dp421
g3
I0
sS'squared_salary'
p422
F0.0
sg5
I53625
sS'squared_from_poi_to_this_person_ratio'
p423
F0.0
sg7
I33785
sS'squared_expenses'
p424
F1141426225.0
sg9
I00
sg10
I0
sg11
I0
sg13
I0
sS'from_poi_to_this_person_ratio'
p425
F0.0
sS'squared_salary_ratio'
p426
F0.0
sg16
I0
sS'squared_bonus'
p427
F0.0
sg18
I0
sg19
I0
sg20
I0
sg21
I0
sS'squared_bonus_ratio'
p428
F0.0
sg23
I0
sS'squared_restricted_stock_ratio'
p429
F0.0
sg25
I0
sS'expenses_ratio'
p430
F0.3865118407504862
sS'squared_from_this_person_to_poi_ratio'
p431
F0.0
sg28
I1030329
sg29
I0
sS'squared_expenses_ratio'
p432
F0.14939140304032922
sg31
I0
sg32
I0
sS'restricted_stock_ratio'
p433
F0.0
sg34
I0
sS'bonus_ratio'
p434
F0.0
sg36
I87410
sS'salary_ratio'
p435
F0.0
sS'squared_exercised_stock_options_ratio'
p436
F1.0
sg39
I1030329
sS'from_this_person_to_poi_ratio'
p437
F0.0
sS'exercised_stock_options_ratio'
p438
F1.0
ssS'WALLS JR ROBERT H'
p439
(dp440
g3
I671
sS'squared_salary'
p441
F127513982281.0
sg5
I0
sS'squared_from_poi_to_this_person_ratio'
p442
F0.013557890786263838
sg7
I50936
sS'squared_expenses'
p443
F2594476096.0
sg9
I00
sg10
I0
sg11
S'rob.walls@enron.com'
p444
sg13
I540751
sS'from_poi_to_this_person_ratio'
p445
F0.11643835616438356
sS'squared_salary_ratio'
p446
F0.0394095711296901
sg16
I0
sS'squared_bonus'
p447
F722500000000.0
sg18
I215
sg19
I0
sg20
I146
sg21
I2
sS'squared_bonus_ratio'
p448
F0.22329641527824615
sg23
I0
sS'squared_restricted_stock_ratio'
p449
F0.0692596944475952
sg25
I850000
sS'expenses_ratio'
p450
F0.028316970391042817
sS'squared_from_this_person_to_poi_ratio'
p451
F0.0
sg28
I5898997
sg29
I17
sS'squared_expenses_ratio'
p452
F0.0008018508121271956
sg31
I0
sg32
I1552453
sS'restricted_stock_ratio'
p453
F0.2631723664209356
sg34
I357091
sS'bonus_ratio'
p454
F0.47254250102847484
sg36
I1798780
sS'salary_ratio'
p455
F0.1985184402761872
sS'squared_exercised_stock_options_ratio'
p456
F0.542914961605724
sg39
I4346544
sS'from_this_person_to_poi_ratio'
p457
F0.0
sS'exercised_stock_options_ratio'
p458
F0.7368276335790643
ssS'KITCHEN LOUISE'
p459
(dp460
g3
I8305
sS'squared_salary'
p461
F73680759364.0
sg5
I0
sS'squared_from_poi_to_this_person_ratio'
p462
F0.021098907428840876
sg7
I5774
sS'squared_expenses'
p463
F33339076.0
sg9
I00
sg10
I0
sg11
S'louise.kitchen@enron.com'
p464
sg13
I0
sS'from_poi_to_this_person_ratio'
p465
F0.14525462962962962
sS'squared_salary_ratio'
p466
F0.006115184750948797
sg16
I0
sS'squared_bonus'
p467
F9610000000000.0
sg18
I3669
sg19
I0
sg20
I1728
sg21
I93925
sS'squared_bonus_ratio'
p468
F0.7975884880107673
sg23
I0
sS'squared_restricted_stock_ratio'
p469
F0.7257020914295041
sg25
I3100000
sS'expenses_ratio'
p470
F0.0016634299787879547
sS'squared_from_this_person_to_poi_ratio'
p471
F0.0005456625978054465
sg28
I547143
sg29
I251
sS'squared_expenses_ratio'
p472
F2.7669992943304954e-06
sg31
I194
sg32
I466101
sS'restricted_stock_ratio'
p473
F0.8518815008142295
sg34
I271442
sS'bonus_ratio'
p474
F0.8930780973748977
sg36
I3471141
sS'salary_ratio'
p475
F0.07819964674439903
sS'squared_exercised_stock_options_ratio'
p476
F0.02193908980104508
sg39
I81042
sS'from_this_person_to_poi_ratio'
p477
F0.023359422034918725
sS'exercised_stock_options_ratio'
p478
F0.14811849918577044
ssS'CHAN RONNIE'
p479
(dp480
g3
I0
sS'squared_salary'
p481
F0.0
sg5
I0
sS'squared_from_poi_to_this_person_ratio'
p482
F0.0
sg7
I0
sS'squared_expenses'
p483
F0.0
sg9
I00
sg10
I98784
sg11
I0
sg13
I0
sS'from_poi_to_this_person_ratio'
p484
F0.0
sS'squared_salary_ratio'
p485
F0.0
sg16
I32460
sS'squared_bonus'
p486
F0.0
sg18
I0
sg19
I0
sg20
I0
sg21
I0
sS'squared_bonus_ratio'
p487
F0.0
sg23
I98784
sS'squared_restricted_stock_ratio'
p488
F0.0
sg25
I0
sS'expenses_ratio'
p489
F0.0
sS'squared_from_this_person_to_poi_ratio'
p490
F0.0
sg28
I0
sg29
I0
sS'squared_expenses_ratio'
p491
F0.0
sg31
I0
sg32
I32460
sS'restricted_stock_ratio'
p492
F0.0
sg34
I0
sS'bonus_ratio'
p493
F0.0
sg36
I0
sS'salary_ratio'
p494
F0.0
sS'squared_exercised_stock_options_ratio'
p495
F0.0
sg39
I0
sS'from_this_person_to_poi_ratio'
p496
F0.0
sS'exercised_stock_options_ratio'
p497
F0.0
ssS'BELFER ROBERT'
p498
(dp499
g3
I0
sS'squared_salary'
p500
F0.0
sg5
I0
sS'squared_from_poi_to_this_person_ratio'
p501
F0.0
sg7
I3285
sS'squared_expenses'
p502
F10791225.0
sg9
I00
sg10
I102500
sg11
I0
sg13
I0
sS'from_poi_to_this_person_ratio'
p503
F0.0
sS'squared_salary_ratio'
p504
F0.0
sg16
I44093
sS'squared_bonus'
p505
F0.0
sg18
I0
sg19
I0
sg20
I0
sg21
I0
sS'squared_bonus_ratio'
p506
F0.0
sg23
I102500
sS'squared_restricted_stock_ratio'
p507
F0.0
sg25
I0
sS'expenses_ratio'
p508
F1.0
sS'squared_from_this_person_to_poi_ratio'
p509
F0.0
sg28
I0
sg29
I0
sS'squared_expenses_ratio'
p510
F1.0
sg31
I0
sg32
I44093
sS'restricted_stock_ratio'
p511
F0.0
sg34
I0
sS'bonus_ratio'
p512
F0.0
sg36
I3285
sS'salary_ratio'
p513
F0.0
sS'squared_exercised_stock_options_ratio'
p514
F0.0
sg39
I0
sS'from_this_person_to_poi_ratio'
p515
F0.0
sS'exercised_stock_options_ratio'
p516
F0.0
ssS'SHANKMAN JEFFREY A'
p517
(dp518
g3
I3221
sS'squared_salary'
p519
F92482892100.0
sg5
I0
sS'squared_from_poi_to_this_person_ratio'
p520
F0.0012293118816833226
sg7
I178979
sS'squared_expenses'
p521
F32033482441.0
sg9
I00
sg10
I0
sg11
S'jeffrey.shankman@enron.com'
p522
sg13
I554422
sS'from_poi_to_this_person_ratio'
p523
F0.0350615441999254
sS'squared_salary_ratio'
p524
F0.010015789282358925
sg16
I0
sS'squared_bonus'
p525
F4000000000000.0
sg18
I1730
sg19
I0
sg20
I2681
sg21
I1191
sS'squared_bonus_ratio'
p526
F0.43319533180381264
sg23
I0
sS'squared_restricted_stock_ratio'
p527
F0.09248595552688055
sg25
I2000000
sS'expenses_ratio'
p528
F0.05889981972565918
sS'squared_from_this_person_to_poi_ratio'
p529
F0.0006640101761559526
sg28
I2072035
sg29
I94
sS'squared_expenses_ratio'
p530
F0.00346918876371515
sg31
I83
sg32
I630137
sS'restricted_stock_ratio'
p531
F0.3041150366668517
sg34
I304110
sS'bonus_ratio'
p532
F0.6581757605714545
sg36
I3038702
sS'salary_ratio'
p533
F0.10007891527369252
sS'squared_exercised_stock_options_ratio'
p534
F0.48425588219317717
sg39
I1441898
sS'from_this_person_to_poi_ratio'
p535
F0.025768394908413535
sS'exercised_stock_options_ratio'
p536
F0.6958849633331483
ssS'WODRASKA JOHN'
p537
(dp538
g3
I0
sS'squared_salary'
p539
F0.0
sg5
I0
sS'squared_from_poi_to_this_person_ratio'
p540
F0.0
sg7
I0
sS'squared_expenses'
p541
F0.0
sg9
I00
sg10
I0
sg11
S'john.wodraska@enron.com'
p542
sg13
I0
sS'from_poi_to_this_person_ratio'
p543
F0.0
sS'squared_salary_ratio'
p544
F0.0
sg16
I0
sS'squared_bonus'
p545
F0.0
sg18
I0
sg19
I0
sg20
I0
sg21
I189583
sS'squared_bonus_ratio'
p546
F0.0
sg23
I0
sS'squared_restricted_stock_ratio'
p547
F0.0
sg25
I0
sS'expenses_ratio'
p548
F0.0
sS'squared_from_this_person_to_poi_ratio'
p549
F0.0
sg28
I0
sg29
I0
sS'squared_expenses_ratio'
p550
F0.0
sg31
I0
sg32
I0
sS'restricted_stock_ratio'
p551
F0.0
sg34
I0
sS'bonus_ratio'
p552
F0.0
sg36
I189583
sS'salary_ratio'
p553
F0.0
sS'squared_exercised_stock_options_ratio'
p554
F0.0
sg39
I0
sS'from_this_person_to_poi_ratio'
p555
F0.0
sS'exercised_stock_options_ratio'
p556
F0.0
ssS'BERGSIEKER RICHARD P'
p557
(dp558
g3
I383
sS'squared_salary'
p559
F35314678084.0
sg5
I0
sS'squared_from_poi_to_this_person_ratio'
p560
F0.004596380350474002
sg7
I59175
sS'squared_expenses'
p561
F3501680625.0
sg9
I00
sg10
I485813
sg11
S'rick.bergsieker@enron.com'
p562
sg13
I180250
sS'from_poi_to_this_person_ratio'
p563
F0.06779661016949153
sS'squared_salary_ratio'
p564
F0.09221136718019213
sg16
I0
sS'squared_bonus'
p565
F62500000000.0
sg18
I233
sg19
I0
sg20
I59
sg21
I427316
sS'squared_bonus_ratio'
p566
F0.1631958936466461
sg23
I0
sS'squared_restricted_stock_ratio'
p567
F1.0
sg25
I250000
sS'expenses_ratio'
p568
F0.09562090975195928
sS'squared_from_this_person_to_poi_ratio'
p569
F0.0
sg28
I659249
sg29
I4
sS'squared_expenses_ratio'
p570
F0.009143358381792342
sg31
I0
sg32
I659249
sS'restricted_stock_ratio'
p571
F1.0
sg34
I187922
sS'bonus_ratio'
p572
F0.4039751151329078
sg36
I618850
sS'salary_ratio'
p573
F0.3036632463440252
sS'squared_exercised_stock_options_ratio'
p574
F0.0
sg39
I0
sS'from_this_person_to_poi_ratio'
p575
F0.0
sS'exercised_stock_options_ratio'
p576
F0.0
ssS'URQUHART JOHN A'
p577
(dp578
g3
I0
sS'squared_salary'
p579
F0.0
sg5
I0
sS'squared_from_poi_to_this_person_ratio'
p580
F0.0
sg7
I228656
sS'squared_expenses'
p581
F52283566336.0
sg9
I00
sg10
I36666
sg11
I0
sg13
I0
sS'from_poi_to_this_person_ratio'
p582
F0.0
sS'squared_salary_ratio'
p583
F0.0
sg16
I0
sS'squared_bonus'
p584
F0.0
sg18
I0
sg19
I0
sg20
I0
sg21
I0
sS'squared_bonus_ratio'
p585
F0.0
sg23
I36666
sS'squared_restricted_stock_ratio'
p586
F0.0
sg25
I0
sS'expenses_ratio'
p587
F1.0
sS'squared_from_this_person_to_poi_ratio'
p588
F0.0
sg28
I0
sg29
I0
sS'squared_expenses_ratio'
p589
F1.0
sg31
I0
sg32
I0
sS'restricted_stock_ratio'
p590
F0.0
sg34
I0
sS'bonus_ratio'
p591
F0.0
sg36
I228656
sS'salary_ratio'
p592
F0.0
sS'squared_exercised_stock_options_ratio'
p593
F0.0
sg39
I0
sS'from_this_person_to_poi_ratio'
p594
F0.0
sS'exercised_stock_options_ratio'
p595
F0.0
ssS'BIBI PHILIPPE A'
p596
(dp597
g3
I1607
sS'squared_salary'
p598
F45635640625.0
sg5
I0
sS'squared_from_poi_to_this_person_ratio'
p599
F0.33062499999999995
sg7
I38559
sS'squared_expenses'
p600
F1486796481.0
sg9
I00
sg10
I0
sg11
S'philippe.bibi@enron.com'
p601
sg13
I369721
sS'from_poi_to_this_person_ratio'
p602
F0.575
sS'squared_salary_ratio'
p603
F0.010884710411528057
sg16
I0
sS'squared_bonus'
p604
F1000000000000.0
sg18
I1336
sg19
I0
sg20
I40
sg21
I425688
sS'squared_bonus_ratio'
p605
F0.238513369429183
sg23
I0
sS'squared_restricted_stock_ratio'
p606
F0.042047177154990185
sg25
I1000000
sS'expenses_ratio'
p607
F0.018831379087543277
sS'squared_from_this_person_to_poi_ratio'
p608
F2.4782677218407797e-05
sg28
I1843816
sg29
I23
sS'squared_expenses_ratio'
p609
F0.0003546208383387623
sg31
I8
sg32
I378082
sS'restricted_stock_ratio'
p610
F0.20505408348772328
sg34
I213625
sS'bonus_ratio'
p611
F0.4883783056496091
sg36
I2047593
sS'salary_ratio'
p612
F0.10432981554439774
sS'squared_exercised_stock_options_ratio'
p613
F0.6319390101795437
sg39
I1465734
sS'from_this_person_to_poi_ratio'
p614
F0.004978220286247666
sS'exercised_stock_options_ratio'
p615
F0.7949459165122768
ssS'RIEKER PAULA H'
p616
(dp617
g3
I1328
sS'squared_salary'
p618
F62101138401.0
sg5
I214678
sS'squared_from_poi_to_this_person_ratio'
p619
F0.1821832242712671
sg7
I33271
sS'squared_expenses'
p620
F1106959441.0
sg9
I01
sg10
I100000
sg11
S'paula.rieker@enron.com'
p621
sg13
I0
sS'from_poi_to_this_person_ratio'
p622
F0.4268292682926829
sS'squared_salary_ratio'
p623
F0.05140734156806455
sg16
I0
sS'squared_bonus'
p624
F490000000000.0
sg18
I1258
sg19
I0
sg20
I82
sg21
I1950
sS'squared_bonus_ratio'
p625
F0.40562215149257236
sg23
I0
sS'squared_restricted_stock_ratio'
p626
F0.021850617383838346
sg25
I700000
sS'expenses_ratio'
p627
F0.03027113092530252
sS'squared_from_this_person_to_poi_ratio'
p628
F0.0013064305414428798
sg28
I1918887
sg29
I35
sS'squared_expenses_ratio'
p629
F0.0009163413674968065
sg31
I48
sg32
I283649
sS'restricted_stock_ratio'
p630
F0.14781954330817812
sg34
I249201
sS'bonus_ratio'
p631
F0.6368847238649804
sg36
I1099100
sS'salary_ratio'
p632
F0.22673187153125285
sS'squared_exercised_stock_options_ratio'
p633
F0.726211530767482
sg39
I1635238
sS'from_this_person_to_poi_ratio'
p634
F0.03614457831325301
sS'exercised_stock_options_ratio'
p635
F0.8521804566918219
ssS'BECK SALLY W'
p636
(dp637
g3
I7315
sS'squared_salary'
p638
F53513568900.0
sg5
I0
sS'squared_from_poi_to_this_person_ratio'
p639
F0.001099373654975766
sg7
I37172
sS'squared_expenses'
p640
F1381757584.0
sg9
I00
sg10
I0
sg11
S'sally.beck@enron.com'
p641
sg13
I0
sS'from_poi_to_this_person_ratio'
p642
F0.033156804052498275
sS'squared_salary_ratio'
p643
F0.05698432524267429
sg16
I0
sS'squared_bonus'
p644
F490000000000.0
sg18
I2639
sg19
I0
sg20
I4343
sg21
I566
sS'squared_bonus_ratio'
p645
F0.5217801754371574
sg23
I0
sS'squared_restricted_stock_ratio'
p646
F1.0
sg25
I700000
sS'expenses_ratio'
p647
F0.0383585052854908
sS'squared_from_this_person_to_poi_ratio'
p648
F0.0027844918329502995
sg28
I126027
sg29
I144
sS'squared_expenses_ratio'
p649
F0.0014713749277370256
sg31
I386
sg32
I126027
sS'restricted_stock_ratio'
p650
F1.0
sg34
I231330
sS'bonus_ratio'
p651
F0.7223435300721931
sg36
I969068
sS'salary_ratio'
p652
F0.23871389830228631
sS'squared_exercised_stock_options_ratio'
p653
F0.0
sg39
I0
sS'from_this_person_to_poi_ratio'
p654
F0.052768284347231714
sS'exercised_stock_options_ratio'
p655
F0.0
ssS'HAUG DAVID L'
p656
(dp657
g3
I573
sS'squared_salary'
p658
F0.0
sg5
I0
sS'squared_from_poi_to_this_person_ratio'
p659
F0.04432132963988919
sg7
I475
sS'squared_expenses'
p660
F225625.0
sg9
I00
sg10
I0
sg11
S'david.haug@enron.com'
p661
sg13
I0
sS'from_poi_to_this_person_ratio'
p662
F0.21052631578947367
sS'squared_salary_ratio'
p663
F0.0
sg16
I0
sS'squared_bonus'
p664
F0.0
sg18
I471
sg19
I0
sg20
I19
sg21
I0
sS'squared_bonus_ratio'
p665
F0.0
sg23
I0
sS'squared_restricted_stock_ratio'
p666
F1.0
sg25
I0
sS'expenses_ratio'
p667
F1.0
sS'squared_from_this_person_to_poi_ratio'
p668
F0.0001492405483524148
sg28
I2217299
sg29
I4
sS'squared_expenses_ratio'
p669
F1.0
sg31
I7
sg32
I2217299
sS'restricted_stock_ratio'
p670
F1.0
sg34
I0
sS'bonus_ratio'
p671
F0.0
sg36
I475
sS'salary_ratio'
p672
F0.0
sS'squared_exercised_stock_options_ratio'
p673
F0.0
sg39
I0
sS'from_this_person_to_poi_ratio'
p674
F0.012216404886561954
sS'exercised_stock_options_ratio'
p675
F0.0
ssS'ECHOLS JOHN B'
p676
(dp677
g3
I0
sS'squared_salary'
p678
F33213240025.0
sg5
I0
sS'squared_from_poi_to_this_person_ratio'
p679
F0.0
sg7
I21530
sS'squared_expenses'
p680
F463540900.0
sg9
I00
sg10
I0
sg11
S'john.echols@enron.com'
p681
sg13
I2234774
sS'from_poi_to_this_person_ratio'
p682
F0.0
sS'squared_salary_ratio'
p683
F0.004582015972981246
sg16
I0
sS'squared_bonus'
p684
F40000000000.0
sg18
I0
sg19
I0
sg20
I0
sg21
I53775
sS'squared_bonus_ratio'
p685
F0.005518300496467442
sg23
I0
sS'squared_restricted_stock_ratio'
p686
F0.16312858884233586
sg25
I200000
sS'expenses_ratio'
p687
F0.007996808705044415
sS'squared_from_this_person_to_poi_ratio'
p688
F0.0
sg28
I1008941
sg29
I0
sS'squared_expenses_ratio'
p689
F6.394894946507413e-05
sg31
I0
sg32
I407503
sS'restricted_stock_ratio'
p690
F0.40389180338592645
sg34
I182245
sS'bonus_ratio'
p691
F0.07428526432925606
sg36
I2692324
sS'salary_ratio'
p692
F0.06769058998842635
sS'squared_exercised_stock_options_ratio'
p693
F0.355344982070483
sg39
I601438
sS'from_this_person_to_poi_ratio'
p694
F0.0
sS'exercised_stock_options_ratio'
p695
F0.5961081966140735
ssS'MENDELSOHN JOHN'
p696
(dp697
g3
I0
sS'squared_salary'
p698
F0.0
sg5
I0
sS'squared_from_poi_to_this_person_ratio'
p699
F0.0
sg7
I148
sS'squared_expenses'
p700
F21904.0
sg9
I00
sg10
I103750
sg11
I0
sg13
I0
sS'from_poi_to_this_person_ratio'
p701
F0.0
sS'squared_salary_ratio'
p702
F0.0
sg16
I0
sS'squared_bonus'
p703
F0.0
sg18
I0
sg19
I0
sg20
I0
sg21
I0
sS'squared_bonus_ratio'
p704
F0.0
sg23
I103750
sS'squared_restricted_stock_ratio'
p705
F0.0
sg25
I0
sS'expenses_ratio'
p706
F1.0
sS'squared_from_this_person_to_poi_ratio'
p707
F0.0
sg28
I0
sg29
I0
sS'squared_expenses_ratio'
p708
F1.0
sg31
I0
sg32
I0
sS'restricted_stock_ratio'
p709
F0.0
sg34
I0
sS'bonus_ratio'
p710
F0.0
sg36
I148
sS'salary_ratio'
p711
F0.0
sS'squared_exercised_stock_options_ratio'
p712
F0.0
sg39
I0
sS'from_this_person_to_poi_ratio'
p713
F0.0
sS'exercised_stock_options_ratio'
p714
F0.0
ssS'HICKERSON GARY J'
p715
(dp716
g3
I1320
sS'squared_salary'
p717
F44854156944.0
sg5
I0
sS'squared_from_poi_to_this_person_ratio'
p718
F2.194787379972565
sg7
I98849
sS'squared_expenses'
p719
F9771124801.0
sg9
I00
sg10
I0
sg11
S'gary.hickerson@enron.com'
p720
sg13
I69223
sS'from_poi_to_this_person_ratio'
p721
F1.4814814814814814
sS'squared_salary_ratio'
p722
F0.010349666576155573
sg16
I0
sS'squared_bonus'
p723
F2890000000000.0
sg18
I900
sg19
I0
sg20
I27
sg21
I1936
sS'squared_bonus_ratio'
p724
F0.6668397857178018
sg23
I0
sS'squared_restricted_stock_ratio'
p725
F1.0
sg25
I1700000
sS'expenses_ratio'
p726
F0.04748255832944246
sS'squared_from_this_person_to_poi_ratio'
p727
F5.73921028466483e-07
sg28
I441096
sg29
I40
sS'squared_expenses_ratio'
p728
F0.0022545933455089054
sg31
I1
sg32
I441096
sS'restricted_stock_ratio'
p729
F1.0
sg34
I211788
sS'bonus_ratio'
p730
F0.8166025873812804
sg36
I2081796
sS'salary_ratio'
p731
F0.10173331104488624
sS'squared_exercised_stock_options_ratio'
p732
F0.0
sg39
I0
sS'from_this_person_to_poi_ratio'
p733
F0.0007575757575757576
sS'exercised_stock_options_ratio'
p734
F0.0
ssS'CLINE KENNETH W'
p735
(dp736
g3
I0
sS'squared_salary'
p737
F0.0
sg5
I0
sS'squared_from_poi_to_this_person_ratio'
p738
F0.0
sg7
I0
sS'squared_expenses'
p739
F0.0
sg9
I00
sg10
I0
sg11
I0
sg13
I0
sS'from_poi_to_this_person_ratio'
p740
F0.0
sS'squared_salary_ratio'
p741
F0.0
sg16
I472568
sS'squared_bonus'
p742
F0.0
sg18
I0
sg19
I0
sg20
I0
sg21
I0
sS'squared_bonus_ratio'
p743
F0.0
sg23
I0
sS'squared_restricted_stock_ratio'
p744
F12.204721683373027
sg25
I0
sS'expenses_ratio'
p745
F0.0
sS'squared_from_this_person_to_poi_ratio'
p746
F0.0
sg28
I189518
sg29
I0
sS'squared_expenses_ratio'
p747
F0.0
sg31
I0
sg32
I662086
sS'restricted_stock_ratio'
p748
F3.4935256809379585
sg34
I0
sS'bonus_ratio'
p749
F0.0
sg36
I0
sS'salary_ratio'
p750
F0.0
sS'squared_exercised_stock_options_ratio'
p751
F0.0
sg39
I0
sS'from_this_person_to_poi_ratio'
p752
F0.0
sS'exercised_stock_options_ratio'
p753
F0.0
ssS'LEWIS RICHARD'
p754
(dp755
g3
I952
sS'squared_salary'
p756
F0.0
sg5
I0
sS'squared_from_poi_to_this_person_ratio'
p757
F0.14792899408284024
sg7
I0
sS'squared_expenses'
p758
F0.0
sg9
I00
sg10
I0
sg11
S'richard.lewis@enron.com'
p759
sg13
I0
sS'from_poi_to_this_person_ratio'
p760
F0.38461538461538464
sS'squared_salary_ratio'
p761
F0.0
sg16
I0
sS'squared_bonus'
p762
F0.0
sg18
I739
sg19
I0
sg20
I26
sg21
I0
sS'squared_bonus_ratio'
p763
F0.0
sg23
I0
sS'squared_restricted_stock_ratio'
p764
F0.0
sg25
I0
sS'expenses_ratio'
p765
F0.0
sS'squared_from_this_person_to_poi_ratio'
p766
F0.0
sg28
I850477
sg29
I10
sS'squared_expenses_ratio'
p767
F0.0
sg31
I0
sg32
I0
sS'restricted_stock_ratio'
p768
F0.0
sg34
I0
sS'bonus_ratio'
p769
F0.0
sg36
I0
sS'salary_ratio'
p770
F0.0
sS'squared_exercised_stock_options_ratio'
p771
F1.0
sg39
I850477
sS'from_this_person_to_poi_ratio'
p772
F0.0
sS'exercised_stock_options_ratio'
p773
F1.0
ssS'HAYES ROBERT E'
p774
(dp775
g3
I504
sS'squared_salary'
p776
F0.0
sg5
I7961
sS'squared_from_poi_to_this_person_ratio'
p777
F1.7777777777777777
sg7
I0
sS'squared_expenses'
p778
F0.0
sg9
I00
sg10
I0
sg11
S'robert.hayes@enron.com'
p779
sg13
I0
sS'from_poi_to_this_person_ratio'
p780
F1.3333333333333333
sS'squared_salary_ratio'
p781
F0.0
sg16
I0
sS'squared_bonus'
p782
F0.0
sg18
I50
sg19
I0
sg20
I12
sg21
I0
sS'squared_bonus_ratio'
p783
F0.0
sg23
I0
sS'squared_restricted_stock_ratio'
p784
F1.0
sg25
I0
sS'expenses_ratio'
p785
F0.0
sS'squared_from_this_person_to_poi_ratio'
p786
F0.0
sg28
I151418
sg29
I16
sS'squared_expenses_ratio'
p787
F0.0
sg31
I0
sg32
I151418
sS'restricted_stock_ratio'
p788
F1.0
sg34
I0
sS'bonus_ratio'
p789
F0.0
sg36
I7961
sS'salary_ratio'
p790
F0.0
sS'squared_exercised_stock_options_ratio'
p791
F0.0
sg39
I0
sS'from_this_person_to_poi_ratio'
p792
F0.0
sS'exercised_stock_options_ratio'
p793
F0.0
ssS'MCCARTY DANNY J'
p794
(dp795
g3
I1433
sS'squared_salary'
p796
F0.0
sg5
I0
sS'squared_from_poi_to_this_person_ratio'
p797
F0.01352082206598161
sg7
I0
sS'squared_expenses'
p798
F0.0
sg9
I00
sg10
I0
sg11
S'danny.mccarty@enron.com'
p799
sg13
I0
sS'from_poi_to_this_person_ratio'
p800
F0.11627906976744186
sS'squared_salary_ratio'
p801
F0.0
sg16
I0
sS'squared_bonus'
p802
F0.0
sg18
I508
sg19
I0
sg20
I215
sg21
I0
sS'squared_bonus_ratio'
p803
F0.0
sg23
I0
sS'squared_restricted_stock_ratio'
p804
F0.01552292640176038
sg25
I0
sS'expenses_ratio'
p805
F0.0
sS'squared_from_this_person_to_poi_ratio'
p806
F1.9479042741402556e-06
sg28
I758931
sg29
I25
sS'squared_expenses_ratio'
p807
F0.0
sg31
I2
sg32
I94556
sS'restricted_stock_ratio'
p808
F0.12459103660280052
sg34
I0
sS'bonus_ratio'
p809
F0.0
sg36
I0
sS'salary_ratio'
p810
F0.0
sS'squared_exercised_stock_options_ratio'
p811
F0.7663408531961594
sg39
I664375
sS'from_this_person_to_poi_ratio'
p812
F0.0013956734124214933
sS'exercised_stock_options_ratio'
p813
F0.8754089633971995
ssS'KOPPER MICHAEL J'
p814
(dp815
g3
I0
sS'squared_salary'
p816
F50312733025.0
sg5
I0
sS'squared_from_poi_to_this_person_ratio'
p817
F0.0
sg7
I118134
sS'squared_expenses'
p818
F13955641956.0
sg9
I01
sg10
I0
sg11
S'michael.kopper@enron.com'
p819
sg13
I602671
sS'from_poi_to_this_person_ratio'
p820
F0.0
sS'squared_salary_ratio'
p821
F0.007150401842381434
sg16
I0
sS'squared_bonus'
p822
F640000000000.0
sg18
I0
sg19
I0
sg20
I0
sg21
I907502
sS'squared_bonus_ratio'
p823
F0.09095624316115389
sg23
I0
sS'squared_restricted_stock_ratio'
p824
F1.0
sg25
I800000
sS'expenses_ratio'
p825
F0.04453497156764728
sS'squared_from_this_person_to_poi_ratio'
p826
F0.0
sg28
I985032
sg29
I0
sS'squared_expenses_ratio'
p827
F0.001983363692531152
sg31
I0
sg32
I985032
sS'restricted_stock_ratio'
p828
F1.0
sg34
I224305
sS'bonus_ratio'
p829
F0.30158952760524343
sg36
I2652612
sS'salary_ratio'
p830
F0.08456004873686766
sS'squared_exercised_stock_options_ratio'
p831
F0.0
sg39
I0
sS'from_this_person_to_poi_ratio'
p832
F0.0
sS'exercised_stock_options_ratio'
p833
F0.0
ssS'LEFF DANIEL P'
p834
(dp835
g3
I2822
sS'squared_salary'
p836
F74936872516.0
sg5
I0
sS'squared_from_poi_to_this_person_ratio'
p837
F1.1310153691106073
sg7
I0
sS'squared_expenses'
p838
F0.0
sg9
I00
sg10
I0
sg11
S'dan.leff@enron.com'
p839
sg13
I1387399
sS'from_poi_to_this_person_ratio'
p840
F1.0634920634920635
sS'squared_salary_ratio'
p841
F0.010557298166732785
sg16
I0
sS'squared_bonus'
p842
F1000000000000.0
sg18
I2672
sg19
I0
sg20
I63
sg21
I3083
sS'squared_bonus_ratio'
p843
F0.14088255637408226
sg23
I0
sS'squared_restricted_stock_ratio'
p844
F1.0
sg25
I1000000
sS'expenses_ratio'
p845
F0.0
sS'squared_from_this_person_to_poi_ratio'
p846
F2.461172492529839e-05
sg28
I360528
sg29
I67
sS'squared_expenses_ratio'
p847
F0.0
sg31
I14
sg32
I360528
sS'restricted_stock_ratio'
p848
F1.0
sg34
I273746
sS'bonus_ratio'
p849
F0.3753432514034084
sg36
I2664228
sS'salary_ratio'
p850
F0.10274871369867744
sS'squared_exercised_stock_options_ratio'
p851
F0.0
sg39
I0
sS'from_this_person_to_poi_ratio'
p852
F0.004961020552799433
sS'exercised_stock_options_ratio'
p853
F0.0
ssS'LAVORATO JOHN J'
p854
(dp855
g3
I7259
sS'squared_salary'
p856
F115116346944.0
sg5
I0
sS'squared_from_poi_to_this_person_ratio'
p857
F0.041720235400633764
sg7
I49537
sS'squared_expenses'
p858
F2453914369.0
sg9
I00
sg10
I0
sg11
S'john.lavorato@enron.com'
p859
sg13
I2035380
sS'from_poi_to_this_person_ratio'
p860
F0.20425531914893616
sS'squared_salary_ratio'
p861
F0.0010590630176162455
sg16
I0
sS'squared_bonus'
p862
F64000000000000.0
sg18
I3962
sg19
I0
sg20
I2585
sg21
I1552
sS'squared_bonus_ratio'
p863
F0.5887959002070514
sg23
I0
sS'squared_restricted_stock_ratio'
p864
F0.03806697069213316
sg25
I8000000
sS'expenses_ratio'
p865
F0.004751405581388478
sS'squared_from_this_person_to_poi_ratio'
p866
F0.0032057529526504625
sg28
I5167144
sg29
I528
sS'squared_expenses_ratio'
p867
F2.2575854998849586e-05
sg31
I411
sg32
I1008149
sS'restricted_stock_ratio'
p868
F0.19510758747965995
sg34
I339288
sS'bonus_ratio'
p869
F0.767330372269371
sg36
I10425757
sS'salary_ratio'
p870
F0.03254324841831629
sS'squared_exercised_stock_options_ratio'
p871
F0.6478517957328133
sg39
I4158995
sS'from_this_person_to_poi_ratio'
p872
F0.05661936905909905
sS'exercised_stock_options_ratio'
p873
F0.80489241252034
ssS'BERBERIAN DAVID'
p874
(dp875
g3
I0
sS'squared_salary'
p876
F46907762724.0
sg5
I0
sS'squared_from_poi_to_this_person_ratio'
p877
F0.0
sg7
I11892
sS'squared_expenses'
p878
F141419664.0
sg9
I00
sg10
I0
sg11
S'david.berberian@enron.com'
p879
sg13
I0
sS'from_poi_to_this_person_ratio'
p880
F0.0
sS'squared_salary_ratio'
p881
F0.8986097974738372
sg16
I0
sS'squared_bonus'
p882
F0.0
sg18
I0
sg19
I0
sg20
I0
sg21
I0
sS'squared_bonus_ratio'
p883
F0.0
sg23
I0
sS'squared_restricted_stock_ratio'
p884
F0.12150671209417402
sg25
I0
sS'expenses_ratio'
p885
F0.052049686178733685
sS'squared_from_this_person_to_poi_ratio'
p886
F0.0
sg28
I2493616
sg29
I0
sS'squared_expenses_ratio'
p887
F0.0027091698313046605
sg31
I0
sg32
I869220
sS'restricted_stock_ratio'
p888
F0.34857812911049657
sg34
I216582
sS'bonus_ratio'
p889
F0.0
sg36
I228474
sS'salary_ratio'
p890
F0.9479503138212663
sS'squared_exercised_stock_options_ratio'
p891
F0.4243504538731809
sg39
I1624396
sS'from_this_person_to_poi_ratio'
p892
F0.0
sS'exercised_stock_options_ratio'
p893
F0.6514218708895034
ssS'DETMERING TIMOTHY J'
p894
(dp895
g3
I0
sS'squared_salary'
p896
F44310250000.0
sg5
I875307
sS'squared_from_poi_to_this_person_ratio'
p897
F0.0
sg7
I52255
sS'squared_expenses'
p898
F2730585025.0
sg9
I00
sg10
I775241
sg11
S'timothy.detmering@enron.com'
p899
sg13
I415657
sS'from_poi_to_this_person_ratio'
p900
F0.0
sS'squared_salary_ratio'
p901
F0.030537307393267446
sg16
I315068
sS'squared_bonus'
p902
F180625000000.0
sg18
I0
sg19
I0
sg20
I0
sg21
I1105
sS'squared_bonus_ratio'
p903
F0.12448138180012373
sg23
I0
sS'squared_restricted_stock_ratio'
p904
F0.024139624662256855
sg25
I425000
sS'expenses_ratio'
p905
F0.0433801572826447
sS'squared_from_this_person_to_poi_ratio'
p906
F0.0
sg28
I2027865
sg29
I0
sS'squared_expenses_ratio'
p907
F0.001881838045866992
sg31
I0
sg32
I315068
sS'restricted_stock_ratio'
p908
F0.15536931699102258
sg34
I210500
sS'bonus_ratio'
p909
F0.3528191913716199
sg36
I1204583
sS'salary_ratio'
p910
F0.17474927007935526
sS'squared_exercised_stock_options_ratio'
p911
F1.0
sg39
I2027865
sS'from_this_person_to_poi_ratio'
p912
F0.0
sS'exercised_stock_options_ratio'
p913
F1.0
ssS'WAKEHAM JOHN'
p914
(dp915
g3
I0
sS'squared_salary'
p916
F0.0
sg5
I0
sS'squared_from_poi_to_this_person_ratio'
p917
F0.0
sg7
I103773
sS'squared_expenses'
p918
F10768835529.0
sg9
I00
sg10
I0
sg11
I0
sg13
I0
sS'from_poi_to_this_person_ratio'
p919
F0.0
sS'squared_salary_ratio'
p920
F0.0
sg16
I0
sS'squared_bonus'
p921
F0.0
sg18
I0
sg19
I0
sg20
I0
sg21
I0
sS'squared_bonus_ratio'
p922
F0.0
sg23
I109298
sS'squared_restricted_stock_ratio'
p923
F0.0
sg25
I0
sS'expenses_ratio'
p924
F0.4870348381525407
sS'squared_from_this_person_to_poi_ratio'
p925
F0.0
sg28
I0
sg29
I0
sS'squared_expenses_ratio'
p926
F0.23720293357427155
sg31
I0
sg32
I0
sS'restricted_stock_ratio'
p927
F0.0
sg34
I0
sS'bonus_ratio'
p928
F0.0
sg36
I213071
sS'salary_ratio'
p929
F0.0
sS'squared_exercised_stock_options_ratio'
p930
F0.0
sg39
I0
sS'from_this_person_to_poi_ratio'
p931
F0.0
sS'exercised_stock_options_ratio'
p932
F0.0
ssS'POWERS WILLIAM'
p933
(dp934
g3
I653
sS'squared_salary'
p935
F0.0
sg5
I0
sS'squared_from_poi_to_this_person_ratio'
p936
F0.0
sg7
I0
sS'squared_expenses'
p937
F0.0
sg9
I00
sg10
I17500
sg11
S'ken.powers@enron.com'
p938
sg13
I0
sS'from_poi_to_this_person_ratio'
p939
F0.0
sS'squared_salary_ratio'
p940
F0.0
sg16
I0
sS'squared_bonus'
p941
F0.0
sg18
I12
sg19
I0
sg20
I26
sg21
I0
sS'squared_bonus_ratio'
p942
F0.0
sg23
I17500
sS'squared_restricted_stock_ratio'
p943
F0.0
sg25
I0
sS'expenses_ratio'
p944
F0.0
sS'squared_from_this_person_to_poi_ratio'
p945
F0.0
sg28
I0
sg29
I0
sS'squared_expenses_ratio'
p946
F0.0
sg31
I0
sg32
I0
sS'restricted_stock_ratio'
p947
F0.0
sg34
I0
sS'bonus_ratio'
p948
F0.0
sg36
I0
sS'salary_ratio'
p949
F0.0
sS'squared_exercised_stock_options_ratio'
p950
F0.0
sg39
I0
sS'from_this_person_to_poi_ratio'
p951
F0.0
sS'exercised_stock_options_ratio'
p952
F0.0
ssS'GOLD JOSEPH'
p953
(dp954
g3
I0
sS'squared_salary'
p955
F74463494400.0
sg5
I0
sS'squared_from_poi_to_this_person_ratio'
p956
F0.0
sg7
I0
sS'squared_expenses'
p957
F0.0
sg9
I00
sg10
I0
sg11
S'joe.gold@enron.com'
p958
sg13
I304805
sS'from_poi_to_this_person_ratio'
p959
F0.0
sS'squared_salary_ratio'
p960
F0.016154378233495963
sg16
I0
sS'squared_bonus'
p961
F562500000000.0
sg18
I0
sg19
I0
sg20
I0
sg21
I819288
sS'squared_bonus_ratio'
p962
F0.12203077265658754
sg23
I0
sS'squared_restricted_stock_ratio'
p963
F0.2526167379808499
sg25
I750000
sS'expenses_ratio'
p964
F0.0
sS'squared_from_this_person_to_poi_ratio'
p965
F0.0
sg28
I877611
sg29
I0
sS'squared_expenses_ratio'
p966
F0.0
sg31
I0
sg32
I441096
sS'restricted_stock_ratio'
p967
F0.5026099262657373
sg34
I272880
sS'bonus_ratio'
p968
F0.34932903208377564
sg36
I2146973
sS'salary_ratio'
p969
F0.12709987503336093
sS'squared_exercised_stock_options_ratio'
p970
F0.24739688544937527
sg39
I436515
sS'from_this_person_to_poi_ratio'
p971
F0.0
sS'exercised_stock_options_ratio'
p972
F0.4973900737342627
ssS'BANNANTINE JAMES M'
p973
(dp974
g3
I566
sS'squared_salary'
p975
F227529.0
sg5
I0
sS'squared_from_poi_to_this_person_ratio'
p976
F1.808561236623068
sg7
I56301
sS'squared_expenses'
p977
F3169802601.0
sg9
I00
sg10
I5104
sg11
S'james.bannantine@enron.com'
p978
sg13
I0
sS'from_poi_to_this_person_ratio'
p979
F1.3448275862068966
sS'squared_salary_ratio'
p980
F2.7105600136995524e-07
sg16
I560222
sS'squared_bonus'
p981
F0.0
sg18
I465
sg19
I0
sg20
I29
sg21
I864523
sS'squared_bonus_ratio'
p982
F0.0
sg23
I0
sS'squared_restricted_stock_ratio'
p983
F0.11235074980244615
sg25
I0
sS'expenses_ratio'
p984
F0.0614507578610277
sS'squared_from_this_person_to_poi_ratio'
p985
F0.0
sg28
I5243487
sg29
I39
sS'squared_expenses_ratio'
p986
F0.003776195641694658
sg31
I0
sg32
I1757552
sS'restricted_stock_ratio'
p987
F0.33518763372541976
sg34
I477
sS'bonus_ratio'
p988
F0.0
sg36
I916197
sS'salary_ratio'
p989
F0.0005206303884426602
sS'squared_exercised_stock_options_ratio'
p990
F0.5954496845358627
sg39
I4046157
sS'from_this_person_to_poi_ratio'
p991
F0.0
sS'exercised_stock_options_ratio'
p992
F0.7716538631639595
ssS'DUNCAN JOHN H'
p993
(dp994
g3
I0
sS'squared_salary'
p995
F0.0
sg5
I0
sS'squared_from_poi_to_this_person_ratio'
p996
F0.0
sg7
I0
sS'squared_expenses'
p997
F0.0
sg9
I00
sg10
I25000
sg11
I0
sg13
I0
sS'from_poi_to_this_person_ratio'
p998
F0.0
sS'squared_salary_ratio'
p999
F0.0
sg16
I0
sS'squared_bonus'
p1000
F0.0
sg18
I0
sg19
I0
sg20
I0
sg21
I0
sS'squared_bonus_ratio'
p1001
F0.0
sg23
I102492
sS'squared_restricted_stock_ratio'
p1002
F0.0
sg25
I0
sS'expenses_ratio'
p1003
F0.0
sS'squared_from_this_person_to_poi_ratio'
p1004
F0.0
sg28
I371750
sg29
I0
sS'squared_expenses_ratio'
p1005
F0.0
sg31
I0
sg32
I0
sS'restricted_stock_ratio'
p1006
F0.0
sg34
I0
sS'bonus_ratio'
p1007
F0.0
sg36
I77492
sS'salary_ratio'
p1008
F0.0
sS'squared_exercised_stock_options_ratio'
p1009
F1.0
sg39
I371750
sS'from_this_person_to_poi_ratio'
p1010
F0.0
sS'exercised_stock_options_ratio'
p1011
F1.0
ssS'SHAPIRO RICHARD S'
p1012
(dp1013
g3
I15149
sS'squared_salary'
p1014
F72401893776.0
sg5
I0
sS'squared_from_poi_to_this_person_ratio'
p1015
F0.0037094616335585705
sg7
I137767
sS'squared_expenses'
p1016
F18979746289.0
sg9
I00
sg10
I0
sg11
S'richard.shapiro@enron.com'
p1017
sg13
I0
sS'from_poi_to_this_person_ratio'
p1018
F0.060905349794238686
sS'squared_salary_ratio'
p1019
F0.06473657959909104
sg16
I0
sS'squared_bonus'
p1020
F422500000000.0
sg18
I4527
sg19
I0
sg20
I1215
sg21
I705
sS'squared_bonus_ratio'
p1021
F0.3777691915799367
sg23
I0
sS'squared_restricted_stock_ratio'
p1022
F0.14757711195761045
sg25
I650000
sS'expenses_ratio'
p1023
F0.1302702099573731
sS'squared_from_this_person_to_poi_ratio'
p1024
F1.8410211682966954e-05
sg28
I987001
sg29
I74
sS'squared_expenses_ratio'
p1025
F0.01697032760233807
sg31
I65
sg32
I379164
sS'restricted_stock_ratio'
p1026
F0.3841576654937533
sg34
I269076
sS'bonus_ratio'
p1027
F0.6146293123338137
sg36
I1057548
sS'salary_ratio'
p1028
F0.25443384130082036
sS'squared_exercised_stock_options_ratio'
p1029
F0.3792617809701039
sg39
I607837
sS'from_this_person_to_poi_ratio'
p1030
F0.004290712258234867
sS'exercised_stock_options_ratio'
p1031
F0.6158423345062467
ssS'SHERRIFF JOHN R'
p1032
(dp1033
g3
I3187
sS'squared_salary'
p1034
F183852288400.0
sg5
I0
sS'squared_from_poi_to_this_person_ratio'
p1035
F0.09262759924385634
sg7
I0
sS'squared_expenses'
p1036
F0.0
sg9
I00
sg10
I0
sg11
S'john.sherriff@enron.com'
p1037
sg13
I554422
sS'from_poi_to_this_person_ratio'
p1038
F0.30434782608695654
sS'squared_salary_ratio'
p1039
F0.009781672035853457
sg16
I0
sS'squared_bonus'
p1040
F2250000000000.0
sg18
I2103
sg19
I0
sg20
I92
sg21
I1852186
sS'squared_bonus_ratio'
p1041
F0.11970893738775068
sg23
I0
sS'squared_restricted_stock_ratio'
p1042
F0.17087388779129511
sg25
I1500000
sS'expenses_ratio'
p1043
F0.0
sS'squared_from_this_person_to_poi_ratio'
p1044
F5.208246672801699e-05
sg28
I3128982
sg29
I28
sS'squared_expenses_ratio'
p1045
F0.0
sg31
I23
sg32
I1293424
sS'restricted_stock_ratio'
p1046
F0.41336894875074387
sg34
I428780
sS'bonus_ratio'
p1047
F0.34598979376240374
sg36
I4335388
sS'salary_ratio'
p1048
F0.09890233584629565
sS'squared_exercised_stock_options_ratio'
p1049
F0.34413599028980746
sg39
I1835558
sS'from_this_person_to_poi_ratio'
p1050
F0.0072168183244430495
sS'exercised_stock_options_ratio'
p1051
F0.5866310512492562
ssS'SHELBY REX'
p1052
(dp1053
g3
I225
sS'squared_salary'
p1054
F44877880336.0
sg5
I0
sS'squared_from_poi_to_this_person_ratio'
p1055
F0.1111111111111111
sg7
I22884
sS'squared_expenses'
p1056
F523677456.0
sg9
I01
sg10
I4167
sg11
S'rex.shelby@enron.com'
p1057
sg13
I0
sS'from_poi_to_this_person_ratio'
p1058
F0.3333333333333333
sS'squared_salary_ratio'
p1059
F0.01117600911807124
sg16
I0
sS'squared_bonus'
p1060
F40000000000.0
sg18
I91
sg19
I0
sg20
I39
sg21
I1573324
sS'squared_bonus_ratio'
p1061
F0.00996126290671184
sg23
I0
sS'squared_restricted_stock_ratio'
p1062
F0.12150671209417402
sg25
I200000
sS'expenses_ratio'
p1063
F0.011419817005466881
sS'squared_from_this_person_to_poi_ratio'
p1064
F0.003871604938271605
sg28
I2493616
sg29
I13
sS'squared_expenses_ratio'
p1065
F0.00013041222043835057
sg31
I14
sg32
I869220
sS'restricted_stock_ratio'
p1066
F0.34857812911049657
sg34
I211844
sS'bonus_ratio'
p1067
F0.09980612659908128
sg36
I2003885
sS'salary_ratio'
p1068
F0.10571664541627888
sS'squared_exercised_stock_options_ratio'
p1069
F0.4243504538731809
sg39
I1624396
sS'from_this_person_to_poi_ratio'
p1070
F0.06222222222222222
sS'exercised_stock_options_ratio'
p1071
F0.6514218708895034
ssS'LEMAISTRE CHARLES'
p1072
(dp1073
g3
I0
sS'squared_salary'
p1074
F0.0
sg5
I0
sS'squared_from_poi_to_this_person_ratio'
p1075
F0.0
sg7
I0
sS'squared_expenses'
p1076
F0.0
sg9
I00
sg10
I25000
sg11
I0
sg13
I0
sS'from_poi_to_this_person_ratio'
p1077
F0.0
sS'squared_salary_ratio'
p1078
F0.0
sg16
I0
sS'squared_bonus'
p1079
F0.0
sg18
I0
sg19
I0
sg20
I0
sg21
I0
sS'squared_bonus_ratio'
p1080
F0.0
sg23
I112492
sS'squared_restricted_stock_ratio'
p1081
F0.0
sg25
I0
sS'expenses_ratio'
p1082
F0.0
sS'squared_from_this_person_to_poi_ratio'
p1083
F0.0
sg28
I412878
sg29
I0
sS'squared_expenses_ratio'
p1084
F0.0
sg31
I0
sg32
I0
sS'restricted_stock_ratio'
p1085
F0.0
sg34
I0
sS'bonus_ratio'
p1086
F0.0
sg36
I87492
sS'salary_ratio'
p1087
F0.0
sS'squared_exercised_stock_options_ratio'
p1088
F1.0
sg39
I412878
sS'from_this_person_to_poi_ratio'
p1089
F0.0
sS'exercised_stock_options_ratio'
p1090
F1.0
ssS'DEFFNER JOSEPH M'
p1091
(dp1092
g3
I714
sS'squared_salary'
p1093
F42485866641.0
sg5
I0
sS'squared_from_poi_to_this_person_ratio'
p1094
F2.4150840029218403
sg7
I41626
sS'squared_expenses'
p1095
F1732723876.0
sg9
I00
sg10
I0
sg11
S'joseph.deffner@enron.com'
p1096
sg13
I335349
sS'from_poi_to_this_person_ratio'
p1097
F1.554054054054054
sS'squared_salary_ratio'
p1098
F0.029083327074165125
sg16
I0
sS'squared_bonus'
p1099
F360000000000.0
sg18
I552
sg19
I0
sg20
I74
sg21
I25553
sS'squared_bonus_ratio'
p1100
F0.24643483997089083
sg23
I0
sS'squared_restricted_stock_ratio'
p1101
F0.7936123868774266
sg25
I600000
sS'expenses_ratio'
p1102
F0.034440106267410966
sS'squared_from_this_person_to_poi_ratio'
p1103
F3.138510306083218e-05
sg28
I159211
sg29
I115
sS'squared_expenses_ratio'
p1104
F0.0011861209197105602
sg31
I4
sg32
I141833
sS'restricted_stock_ratio'
p1105
F0.8908492503658667
sg34
I206121
sS'bonus_ratio'
p1106
F0.49642203815996205
sg36
I1208649
sS'salary_ratio'
p1107
F0.17053834487928257
sS'squared_exercised_stock_options_ratio'
p1108
F0.011913886145693255
sg39
I17378
sS'from_this_person_to_poi_ratio'
p1109
F0.0056022408963585435
sS'exercised_stock_options_ratio'
p1110
F0.10915074963413332
ssS'KISHKILL JOSEPH G'
p1111
(dp1112
g3
I0
sS'squared_salary'
p1113
F30361668516.0
sg5
I0
sS'squared_from_poi_to_this_person_ratio'
p1114
F0.0
sg7
I116335
sS'squared_expenses'
p1115
F13533832225.0
sg9
I00
sg10
I51042
sg11
S'joe.kishkill@enron.com'
p1116
sg13
I0
sS'from_poi_to_this_person_ratio'
p1117
F0.0
sS'squared_salary_ratio'
p1118
F0.06110483027493923
sg16
I0
sS'squared_bonus'
p1119
F0.0
sg18
I0
sg19
I0
sg20
I0
sg21
I465357
sS'squared_bonus_ratio'
p1120
F0.0
sg23
I0
sS'squared_restricted_stock_ratio'
p1121
F1.0
sg25
I0
sS'expenses_ratio'
p1122
F0.16503853050662792
sS'squared_from_this_person_to_poi_ratio'
p1123
F0.0
sg28
I1034346
sg29
I0
sS'squared_expenses_ratio'
p1124
F0.027237716551787156
sg31
I0
sg32
I1034346
sS'restricted_stock_ratio'
p1125
F1.0
sg34
I174246
sS'bonus_ratio'
p1126
F0.0
sg36
I704896
sS'salary_ratio'
p1127
F0.2471939122934447
sS'squared_exercised_stock_options_ratio'
p1128
F0.0
sg39
I0
sS'from_this_person_to_poi_ratio'
p1129
F0.0
sS'exercised_stock_options_ratio'
p1130
F0.0
ssS'WHALLEY LAWRENCE G'
p1131
(dp1132
g3
I6019
sS'squared_salary'
p1133
F260471412496.0
sg5
I0
sS'squared_from_poi_to_this_person_ratio'
p1134
F0.11191190932146368
sg7
I57838
sS'squared_expenses'
p1135
F3345234244.0
sg9
I00
sg10
I0
sg11
S'greg.whalley@enron.com'
p1136
sg13
I808346
sS'from_poi_to_this_person_ratio'
p1137
F0.3345323741007194
sS'squared_salary_ratio'
p1138
F0.011904707562250717
sg16
I0
sS'squared_bonus'
p1139
F9000000000000.0
sg18
I3920
sg19
I0
sg20
I556
sg21
I301026
sS'squared_bonus_ratio'
p1140
F0.4113402197713418
sg23
I0
sS'squared_restricted_stock_ratio'
p1141
F0.2115657961324671
sg25
I3000000
sS'expenses_ratio'
p1142
F0.012364956706190004
sS'squared_from_this_person_to_poi_ratio'
p1143
F1.5899145975717755e-05
sg28
I6079137
sg29
I186
sS'squared_expenses_ratio'
p1144
F0.00015289215434595316
sg31
I24
sg32
I2796177
sS'restricted_stock_ratio'
p1145
F0.4599628203805902
sg34
I510364
sS'bonus_ratio'
p1146
F0.6413581057189047
sg36
I4677574
sS'salary_ratio'
p1147
F0.10910869608904103
sS'squared_exercised_stock_options_ratio'
p1148
F0.2916401553712867
sg39
I3282960
sS'from_this_person_to_poi_ratio'
p1149
F0.003987373317826882
sS'exercised_stock_options_ratio'
p1150
F0.5400371796194098
ssS'MCCONNELL MICHAEL S'
p1151
(dp1152
g3
I3329
sS'squared_salary'
p1153
F133252741444.0
sg5
I0
sS'squared_from_poi_to_this_person_ratio'
p1154
F0.0011257468846444612
sg7
I81364
sS'squared_expenses'
p1155
F6620100496.0
sg9
I00
sg10
I0
sg11
S'mike.mcconnell@enron.com'
p1156
sg13
I554422
sS'from_poi_to_this_person_ratio'
p1157
F0.03355215171407731
sS'squared_salary_ratio'
p1158
F0.030176827277103965
sg16
I0
sS'squared_bonus'
p1159
F1210000000000.0
sg18
I2189
sg19
I0
sg20
I2742
sg21
I540
sS'squared_bonus_ratio'
p1160
F0.2740203361642728
sg23
I0
sS'squared_restricted_stock_ratio'
p1161
F0.2272088599236222
sg25
I1100000
sS'expenses_ratio'
p1162
F0.038719612594486245
sS'squared_from_this_person_to_poi_ratio'
p1163
F0.0033960640271223125
sg28
I3101279
sg29
I92
sS'squared_expenses_ratio'
p1164
F0.0014992083994670978
sg31
I194
sg32
I1478269
sS'restricted_stock_ratio'
p1165
F0.47666430527533965
sg34
I365038
sS'bonus_ratio'
p1166
F0.5234695178940917
sg36
I2101364
sS'salary_ratio'
p1167
F0.17371478715729402
sS'squared_exercised_stock_options_ratio'
p1168
F0.27388024937294286
sg39
I1623010
sS'from_this_person_to_poi_ratio'
p1169
F0.058275758486031844
sS'exercised_stock_options_ratio'
p1170
F0.5233356947246603
ssS'PIRO JIM'
p1171
(dp1172
g3
I58
sS'squared_salary'
p1173
F0.0
sg5
I0
sS'squared_from_poi_to_this_person_ratio'
p1174
F0.0
sg7
I0
sS'squared_expenses'
p1175
F0.0
sg9
I00
sg10
I0
sg11
S'jim.piro@enron.com'
p1176
sg13
I0
sS'from_poi_to_this_person_ratio'
p1177
F0.0
sS'squared_salary_ratio'
p1178
F0.0
sg16
I0
sS'squared_bonus'
p1179
F0.0
sg18
I3
sg19
I0
sg20
I16
sg21
I0
sS'squared_bonus_ratio'
p1180
F0.0
sg23
I0
sS'squared_restricted_stock_ratio'
p1181
F1.0
sg25
I0
sS'expenses_ratio'
p1182
F0.0
sS'squared_from_this_person_to_poi_ratio'
p1183
F0.00029726516052318666
sg28
I47304
sg29
I0
sS'squared_expenses_ratio'
p1184
F0.0
sg31
I1
sg32
I47304
sS'restricted_stock_ratio'
p1185
F1.0
sg34
I0
sS'bonus_ratio'
p1186
F0.0
sg36
I0
sS'salary_ratio'
p1187
F0.0
sS'squared_exercised_stock_options_ratio'
p1188
F0.0
sg39
I0
sS'from_this_person_to_poi_ratio'
p1189
F0.017241379310344827
sS'exercised_stock_options_ratio'
p1190
F0.0
ssS'DELAINEY DAVID W'
p1191
(dp1192
g3
I3093
sS'squared_salary'
p1193
F133344016569.0
sg5
I0
sS'squared_from_poi_to_this_person_ratio'
p1194
F0.00046248121170077474
sg7
I86174
sS'squared_expenses'
p1195
F7425958276.0
sg9
I01
sg10
I0
sg11
S'david.delainey@enron.com'
p1196
sg13
I1294981
sS'from_poi_to_this_person_ratio'
p1197
F0.021505376344086023
sS'squared_salary_ratio'
p1198
F0.005915016410727634
sg16
I0
sS'squared_bonus'
p1199
F9000000000000.0
sg18
I2097
sg19
I0
sg20
I3069
sg21
I1661
sS'squared_bonus_ratio'
p1200
F0.39923161958303327
sg23
I0
sS'squared_restricted_stock_ratio'
p1201
F0.13402253443694917
sg25
I3000000
sS'expenses_ratio'
p1202
F0.018149616921220586
sS'squared_from_this_person_to_poi_ratio'
p1203
F0.03876812037318396
sg28
I3614261
sg29
I66
sS'squared_expenses_ratio'
p1204
F0.0003294085943870566
sg31
I609
sg32
I1323148
sS'restricted_stock_ratio'
p1205
F0.3660908827558386
sg34
I365163
sS'bonus_ratio'
p1206
F0.6318477819720769
sg36
I4747979
sS'salary_ratio'
p1207
F0.07690914386942319
sS'squared_exercised_stock_options_ratio'
p1208
F0.401840768925272
sg39
I2291113
sS'from_this_person_to_poi_ratio'
p1209
F0.19689621726479145
sS'exercised_stock_options_ratio'
p1210
F0.6339091172441614
ssS'SULLIVAN-SHAKLOVITZ COLLEEN'
p1211
(dp1212
g3
I0
sS'squared_salary'
p1213
F26497002841.0
sg5
I181993
sS'squared_from_poi_to_this_person_ratio'
p1214
F0.0
sg7
I0
sS'squared_expenses'
p1215
F0.0
sg9
I00
sg10
I0
sg11
I0
sg13
I554422
sS'from_poi_to_this_person_ratio'
p1216
F0.0
sS'squared_salary_ratio'
p1217
F0.02653116397677326
sg16
I0
sS'squared_bonus'
p1218
F10000000000.0
sg18
I0
sg19
I0
sg20
I0
sg21
I162
sS'squared_bonus_ratio'
p1219
F0.010012892452772208
sg23
I0
sS'squared_restricted_stock_ratio'
p1220
F0.0
sg25
I100000
sS'expenses_ratio'
p1221
F0.0
sS'squared_from_this_person_to_poi_ratio'
p1222
F0.0
sg28
I1362375
sg29
I0
sS'squared_expenses_ratio'
p1223
F0.0
sg31
I0
sg32
I0
sS'restricted_stock_ratio'
p1224
F0.0
sg34
I162779
sS'bonus_ratio'
p1225
F0.10006444150032621
sg36
I999356
sS'salary_ratio'
p1226
F0.162883897229816
sS'squared_exercised_stock_options_ratio'
p1227
F1.0
sg39
I1362375
sS'from_this_person_to_poi_ratio'
p1228
F0.0
sS'exercised_stock_options_ratio'
p1229
F1.0
ssS'LINDHOLM TOD A'
p1230
(dp1231
g3
I0
sS'squared_salary'
p1232
F55911912849.0
sg5
I204075
sS'squared_from_poi_to_this_person_ratio'
p1233
F0.0
sg7
I57727
sS'squared_expenses'
p1234
F3332406529.0
sg9
I00
sg10
I0
sg11
S'tod.lindholm@enron.com'
p1235
sg13
I175000
sS'from_poi_to_this_person_ratio'
p1236
F0.0
sS'squared_salary_ratio'
p1237
F0.07287963788284797
sg16
I0
sS'squared_bonus'
p1238
F40000000000.0
sg18
I0
sg19
I0
sg20
I0
sg21
I2630
sS'squared_bonus_ratio'
p1239
F0.05213889789796482
sg23
I0
sS'squared_restricted_stock_ratio'
p1240
F0.028230585712539443
sg25
I200000
sS'expenses_ratio'
p1241
F0.06590675302464125
sS'squared_from_this_person_to_poi_ratio'
p1242
F0.0
sg28
I3064208
sg29
I0
sS'squared_expenses_ratio'
p1243
F0.004343700094251058
sg31
I0
sg32
I514847
sS'restricted_stock_ratio'
p1244
F0.1680195991916998
sg34
I236457
sS'bonus_ratio'
p1245
F0.22833943570475254
sg36
I875889
sS'salary_ratio'
p1246
F0.2699622897421934
sS'squared_exercised_stock_options_ratio'
p1247
F0.69219138732914
sg39
I2549361
sS'from_this_person_to_poi_ratio'
p1248
F0.0
sS'exercised_stock_options_ratio'
p1249
F0.8319804008083003
ssS'MEYER JEROME J'
p1250
(dp1251
g3
I0
sS'squared_salary'
p1252
F0.0
sg5
I0
sS'squared_from_poi_to_this_person_ratio'
p1253
F0.0
sg7
I2151
sS'squared_expenses'
p1254
F4626801.0
sg9
I00
sg10
I38346
sg11
I0
sg13
I0
sS'from_poi_to_this_person_ratio'
p1255
F0.0
sS'squared_salary_ratio'
p1256
F0.0
sg16
I0
sS'squared_bonus'
p1257
F0.0
sg18
I0
sg19
I0
sg20
I0
sg21
I0
sS'squared_bonus_ratio'
p1258
F0.0
sg23
I38346
sS'squared_restricted_stock_ratio'
p1259
F0.0
sg25
I0
sS'expenses_ratio'
p1260
F1.0
sS'squared_from_this_person_to_poi_ratio'
p1261
F0.0
sg28
I0
sg29
I0
sS'squared_expenses_ratio'
p1262
F1.0
sg31
I0
sg32
I0
sS'restricted_stock_ratio'
p1263
F0.0
sg34
I0
sS'bonus_ratio'
p1264
F0.0
sg36
I2151
sS'salary_ratio'
p1265
F0.0
sS'squared_exercised_stock_options_ratio'
p1266
F0.0
sg39
I0
sS'from_this_person_to_poi_ratio'
p1267
F0.0
sS'exercised_stock_options_ratio'
p1268
F0.0
ssS'LAY KENNETH L'
p1269
(dp1270
g3
I4273
sS'squared_salary'
p1271
F1149872327041.0
sg5
I202911
sS'squared_from_poi_to_this_person_ratio'
p1272
F11.67361111111111
sg7
I99832
sS'squared_expenses'
p1273
F9966428224.0
sg9
I01
sg10
I300000
sg11
S'kenneth.lay@enron.com'
p1274
sg13
I3600000
sS'from_poi_to_this_person_ratio'
p1275
F3.4166666666666665
sS'squared_salary_ratio'
p1276
F0.00010721789462005302
sg16
I0
sS'squared_bonus'
p1277
F49000000000000.0
sg18
I2411
sg19
I81525000
sg20
I36
sg21
I10359729
sS'squared_bonus_ratio'
p1278
F0.00456892188187713
sg23
I0
sS'squared_restricted_stock_ratio'
p1279
F0.09035062249292188
sg25
I7000000
sS'expenses_ratio'
p1280
F0.0009640034718879749
sS'squared_from_this_person_to_poi_ratio'
p1281
F1.4020844724128651e-05
sg28
I49110078
sg29
I123
sS'squared_expenses_ratio'
p1282
F9.293026938120697e-07
sg31
I16
sg32
I14761694
sS'restricted_stock_ratio'
p1283
F0.30058380277872904
sg34
I1072321
sS'bonus_ratio'
p1284
F0.06759380061719514
sg36
I103559793
sS'salary_ratio'
p1285
F0.010354607410233042
sS'squared_exercised_stock_options_ratio'
p1286
F0.48918301693546373
sg39
I34348384
sS'from_this_person_to_poi_ratio'
p1287
F0.003744441844137608
sS'exercised_stock_options_ratio'
p1288
F0.6994161972212709
ssS'BUTTS ROBERT H'
p1289
(dp1290
g3
I0
sS'squared_salary'
p1291
F68390618256.0
sg5
I0
sS'squared_from_poi_to_this_person_ratio'
p1292
F0.0
sg7
I9410
sS'squared_expenses'
p1293
F88548100.0
sg9
I00
sg10
I75000
sg11
S'bob.butts@enron.com'
p1294
sg13
I175000
sS'from_poi_to_this_person_ratio'
p1295
F0.0
sS'squared_salary_ratio'
p1296
F0.042296826775139504
sg16
I0
sS'squared_bonus'
p1297
F562500000000.0
sg18
I0
sg19
I0
sg20
I0
sg21
I150656
sS'squared_bonus_ratio'
p1298
F0.347883462201757
sg23
I0
sS'squared_restricted_stock_ratio'
p1299
F1.0
sg25
I750000
sS'expenses_ratio'
p1300
F0.007400230578916657
sS'squared_from_this_person_to_poi_ratio'
p1301
F0.0
sg28
I417619
sg29
I0
sS'squared_expenses_ratio'
p1302
F5.4763412621133154e-05
sg31
I0
sg32
I417619
sS'restricted_stock_ratio'
p1303
F1.0
sg34
I261516
sS'bonus_ratio'
p1304
F0.5898164648445794
sg36
I1271582
sS'salary_ratio'
p1305
F0.20566192349372672
sS'squared_exercised_stock_options_ratio'
p1306
F0.0
sg39
I0
sS'from_this_person_to_poi_ratio'
p1307
F0.0
sS'exercised_stock_options_ratio'
p1308
F0.0
ssS'OLSON CINDY K'
p1309
(dp1310
g3
I1184
sS'squared_salary'
p1311
F108292330084.0
sg5
I77716
sS'squared_from_poi_to_this_person_ratio'
p1312
F0.14792899408284024
sg7
I63791
sS'squared_expenses'
p1313
F4069291681.0
sg9
I00
sg10
I0
sg11
S'cindy.olson@enron.com'
p1314
sg13
I100000
sS'from_poi_to_this_person_ratio'
p1315
F0.38461538461538464
sS'squared_salary_ratio'
p1316
F0.062004884029508885
sg16
I0
sS'squared_bonus'
p1317
F562500000000.0
sg18
I856
sg19
I0
sg20
I52
sg21
I972
sS'squared_bonus_ratio'
p1318
F0.32207033720250394
sg23
I0
sS'squared_restricted_stock_ratio'
p1319
F0.13838775718179117
sg25
I750000
sS'expenses_ratio'
p1320
F0.04826957898902582
sS'squared_from_this_person_to_poi_ratio'
p1321
F0.00016050150657414172
sg28
I2606763
sg29
I20
sS'squared_expenses_ratio'
p1322
F0.0023299522557778027
sg31
I15
sg32
I969729
sS'restricted_stock_ratio'
p1323
F0.372005049941249
sg34
I329078
sS'bonus_ratio'
p1324
F0.5675124114964394
sg36
I1321557
sS'salary_ratio'
p1325
F0.2490077991339004
sS'squared_exercised_stock_options_ratio'
p1326
F0.39437765729929325
sg39
I1637034
sS'from_this_person_to_poi_ratio'
p1327
F0.01266891891891892
sS'exercised_stock_options_ratio'
p1328
F0.6279949500587511
ssS'MCDONALD REBECCA'
p1329
(dp1330
g3
I894
sS'squared_salary'
p1331
F0.0
sg5
I0
sS'squared_from_poi_to_this_person_ratio'
p1332
F17.25443786982249
sg7
I0
sS'squared_expenses'
p1333
F0.0
sg9
I00
sg10
I0
sg11
S'rebecca.mcdonald@enron.com'
p1334
sg13
I0
sS'from_poi_to_this_person_ratio'
p1335
F4.153846153846154
sS'squared_salary_ratio'
p1336
F0.0
sg16
I0
sS'squared_bonus'
p1337
F0.0
sg18
I720
sg19
I0
sg20
I13
sg21
I0
sS'squared_bonus_ratio'
p1338
F0.0
sg23
I0
sS'squared_restricted_stock_ratio'
p1339
F0.30498536931017317
sg25
I0
sS'expenses_ratio'
p1340
F0.0
sS'squared_from_this_person_to_poi_ratio'
p1341
F1.2511948911210204e-06
sg28
I1691366
sg29
I54
sS'squared_expenses_ratio'
p1342
F0.0
sg31
I1
sg32
I934065
sS'restricted_stock_ratio'
p1343
F0.5522548046963224
sg34
I0
sS'bonus_ratio'
p1344
F0.0
sg36
I0
sS'salary_ratio'
p1345
F0.0
sS'squared_exercised_stock_options_ratio'
p1346
F0.20047575991752842
sg39
I757301
sS'from_this_person_to_poi_ratio'
p1347
F0.0011185682326621924
sS'exercised_stock_options_ratio'
p1348
F0.4477451953036776
ssS'CUMBERLAND MICHAEL S'
p1349
(dp1350
g3
I0
sS'squared_salary'
p1351
F34187640201.0
sg5
I0
sS'squared_from_poi_to_this_person_ratio'
p1352
F0.0
sg7
I22344
sS'squared_expenses'
p1353
F499254336.0
sg9
I00
sg10
I0
sg11
I0
sg13
I275000
sS'from_poi_to_this_person_ratio'
p1354
F0.0
sS'squared_salary_ratio'
p1355
F0.05237134213484009
sg16
I0
sS'squared_bonus'
p1356
F105625000000.0
sg18
I0
sg19
I0
sg20
I0
sg21
I713
sS'squared_bonus_ratio'
p1357
F0.16180476278765443
sg23
I0
sS'squared_restricted_stock_ratio'
p1358
F1.0
sg25
I325000
sS'expenses_ratio'
p1359
F0.02765497131031888
sS'squared_from_this_person_to_poi_ratio'
p1360
F0.0
sg28
I207940
sg29
I0
sS'squared_expenses_ratio'
p1361
F0.0007647974381745602
sg31
I0
sg32
I207940
sS'restricted_stock_ratio'
p1362
F1.0
sg34
I184899
sS'bonus_ratio'
p1363
F0.4022496274549604
sg36
I807956
sS'salary_ratio'
p1364
F0.2288478580516761
sS'squared_exercised_stock_options_ratio'
p1365
F0.0
sg39
I0
sS'from_this_person_to_poi_ratio'
p1366
F0.0
sS'exercised_stock_options_ratio'
p1367
F0.0
ssS'GAHN ROBERT S'
p1368
(dp1369
g3
I0
sS'squared_salary'
p1370
F36867072064.0
sg5
I73122
sS'squared_from_poi_to_this_person_ratio'
p1371
F0.0
sg7
I50080
sS'squared_expenses'
p1372
F2508006400.0
sg9
I00
sg10
I1042
sg11
I0
sg13
I0
sS'from_poi_to_this_person_ratio'
p1373
F0.0
sS'squared_salary_ratio'
p1374
F0.04545579204798154
sg16
I0
sS'squared_bonus'
p1375
F259967416900.0
sg18
I0
sg19
I0
sg20
I0
sg21
I76547
sS'squared_bonus_ratio'
p1376
F0.3205306030634426
sg23
I0
sS'squared_restricted_stock_ratio'
p1377
F0.5457472903270371
sg25
I509870
sS'expenses_ratio'
p1378
F0.055608299050061906
sS'squared_from_this_person_to_poi_ratio'
p1379
F0.0
sg28
I318607
sg29
I0
sS'squared_expenses_ratio'
p1380
F0.003092282923241116
sg31
I0
sg32
I235370
sS'restricted_stock_ratio'
p1381
F0.7387471085067183
sg34
I192008
sS'bonus_ratio'
p1382
F0.5661542219779365
sg36
I900585
sS'salary_ratio'
p1383
F0.21320363985631563
sS'squared_exercised_stock_options_ratio'
p1384
F0.06825307331360041
sg39
I83237
sS'from_this_person_to_poi_ratio'
p1385
F0.0
sS'exercised_stock_options_ratio'
p1386
F0.2612528914932817
ssS'MCCLELLAN GEORGE'
p1387
(dp1388
g3
I1744
sS'squared_salary'
p1389
F69386408569.0
sg5
I0
sS'squared_from_poi_to_this_person_ratio'
p1390
F1.1261974177426073
sg7
I228763
sS'squared_expenses'
p1391
F52332510169.0
sg9
I00
sg10
I125000
sg11
S'george.mcclellan@enron.com'
p1392
sg13
I0
sS'from_poi_to_this_person_ratio'
p1393
F1.0612244897959184
sS'squared_salary_ratio'
p1394
F0.039897060693825266
sg16
I0
sS'squared_bonus'
p1395
F810000000000.0
sg18
I1469
sg19
I0
sg20
I49
sg21
I51587
sS'squared_bonus_ratio'
p1396
F0.46574854973019414
sg23
I0
sS'squared_restricted_stock_ratio'
p1397
F0.2165593453995764
sg25
I900000
sS'expenses_ratio'
p1398
F0.17346786344475845
sS'squared_from_this_person_to_poi_ratio'
p1399
F0.0
sg28
I947861
sg29
I52
sS'squared_expenses_ratio'
p1400
F0.030091099648089367
sg31
I0
sg32
I441096
sS'restricted_stock_ratio'
p1401
F0.46535937231302904
sg34
I263413
sS'bonus_ratio'
p1402
F0.6824577274309334
sg36
I1318763
sS'salary_ratio'
p1403
F0.1997424859508494
sS'squared_exercised_stock_options_ratio'
p1404
F0.2858406007735183
sg39
I506765
sS'from_this_person_to_poi_ratio'
p1405
F0.0
sS'exercised_stock_options_ratio'
p1406
F0.534640627686971
ssS'HERMANN ROBERT J'
p1407
(dp1408
g3
I0
sS'squared_salary'
p1409
F68991851569.0
sg5
I0
sS'squared_from_poi_to_this_person_ratio'
p1410
F0.0
sg7
I48357
sS'squared_expenses'
p1411
F2338399449.0
sg9
I00
sg10
I280000
sg11
S'robert.hermann@enron.com'
p1412
sg13
I150000
sS'from_poi_to_this_person_ratio'
p1413
F0.0
sS'squared_salary_ratio'
p1414
F0.04098351238258531
sg16
I0
sS'squared_bonus'
p1415
F490000000000.0
sg18
I0
sg19
I0
sg20
I0
sg21
I416441
sS'squared_bonus_ratio'
p1416
F0.29107670849190803
sg23
I0
sS'squared_restricted_stock_ratio'
p1417
F0.5174886385557285
sg25
I700000
sS'expenses_ratio'
p1418
F0.0372704844307459
sS'squared_from_this_person_to_poi_ratio'
p1419
F0.0
sg28
I668132
sg29
I0
sS'squared_expenses_ratio'
p1420
F0.0013890890097024724
sg31
I0
sg32
I480632
sS'restricted_stock_ratio'
p1421
F0.7193668317039148
sg34
I262663
sS'bonus_ratio'
p1422
F0.5395152532523135
sg36
I1297461
sS'salary_ratio'
p1423
F0.20244384995001777
sS'squared_exercised_stock_options_ratio'
p1424
F0.07875497514789888
sg39
I187500
sS'from_this_person_to_poi_ratio'
p1425
F0.0
sS'exercised_stock_options_ratio'
p1426
F0.2806331682960852
ssS'SCRIMSHAW MATTHEW'
p1427
(dp1428
g3
I0
sS'squared_salary'
p1429
F0.0
sg5
I0
sS'squared_from_poi_to_this_person_ratio'
p1430
F0.0
sg7
I0
sS'squared_expenses'
p1431
F0.0
sg9
I00
sg10
I0
sg11
S'matthew.scrimshaw@enron.com'
p1432
sg13
I0
sS'from_poi_to_this_person_ratio'
p1433
F0.0
sS'squared_salary_ratio'
p1434
F0.0
sg16
I0
sS'squared_bonus'
p1435
F0.0
sg18
I0
sg19
I0
sg20
I0
sg21
I0
sS'squared_bonus_ratio'
p1436
F0.0
sg23
I0
sS'squared_restricted_stock_ratio'
p1437
F0.0
sg25
I0
sS'expenses_ratio'
p1438
F0.0
sS'squared_from_this_person_to_poi_ratio'
p1439
F0.0
sg28
I759557
sg29
I0
sS'squared_expenses_ratio'
p1440
F0.0
sg31
I0
sg32
I0
sS'restricted_stock_ratio'
p1441
F0.0
sg34
I0
sS'bonus_ratio'
p1442
F0.0
sg36
I0
sS'salary_ratio'
p1443
F0.0
sS'squared_exercised_stock_options_ratio'
p1444
F1.0
sg39
I759557
sS'from_this_person_to_poi_ratio'
p1445
F0.0
sS'exercised_stock_options_ratio'
p1446
F1.0
ssS'GATHMANN WILLIAM D'
p1447
(dp1448
g3
I0
sS'squared_salary'
p1449
F0.0
sg5
I0
sS'squared_from_poi_to_this_person_ratio'
p1450
F0.0
sg7
I0
sS'squared_expenses'
p1451
F0.0
sg9
I00
sg10
I0
sg11
I0
sg13
I0
sS'from_poi_to_this_person_ratio'
p1452
F0.0
sS'squared_salary_ratio'
p1453
F0.0
sg16
I72419
sS'squared_bonus'
p1454
F0.0
sg18
I0
sg19
I0
sg20
I0
sg21
I0
sS'squared_bonus_ratio'
p1455
F0.0
sg23
I0
sS'squared_restricted_stock_ratio'
p1456
F0.018418347414638478
sg25
I0
sS'expenses_ratio'
p1457
F0.0
sS'squared_from_this_person_to_poi_ratio'
p1458
F0.0
sg28
I1945360
sg29
I0
sS'squared_expenses_ratio'
p1459
F0.0
sg31
I0
sg32
I264013
sS'restricted_stock_ratio'
p1460
F0.13571421227947528
sg34
I0
sS'bonus_ratio'
p1461
F0.0
sg36
I0
sS'salary_ratio'
p1462
F0.0
sS'squared_exercised_stock_options_ratio'
p1463
F0.8127244567766908
sg39
I1753766
sS'from_this_person_to_poi_ratio'
p1464
F0.0
sS'exercised_stock_options_ratio'
p1465
F0.9015123164864087
ssS'HAEDICKE MARK E'
p1466
(dp1467
g3
I4009
sS'squared_salary'
p1468
F139969515625.0
sg5
I2157527
sS'squared_from_poi_to_this_person_ratio'
p1469
F0.008599910656483736
sg7
I76169
sS'squared_expenses'
p1470
F5801716561.0
sg9
I00
sg10
I934484
sg11
S'mark.haedicke@enron.com'
p1471
sg13
I983346
sS'from_poi_to_this_person_ratio'
p1472
F0.09273570324574962
sS'squared_salary_ratio'
p1473
F0.009398732136211643
sg16
I329825
sS'squared_bonus'
p1474
F1322500000000.0
sg18
I1847
sg19
I0
sg20
I1941
sg21
I52382
sS'squared_bonus_ratio'
p1475
F0.08880378841519548
sg23
I0
sS'squared_restricted_stock_ratio'
p1476
F0.42600029789889626
sg25
I1150000
sS'expenses_ratio'
p1477
F0.019737682573369456
sS'squared_from_this_person_to_poi_ratio'
p1478
F0.00023151949022656119
sg28
I803094
sg29
I180
sS'squared_expenses_ratio'
p1479
F0.0003895761133670923
sg31
I61
sg32
I524169
sS'restricted_stock_ratio'
p1480
F0.6526869830928883
sg34
I374125
sS'bonus_ratio'
p1481
F0.29799964499172726
sg36
I3859065
sS'salary_ratio'
p1482
F0.09694705841959127
sS'squared_exercised_stock_options_ratio'
p1483
F0.5745729628313383
sg39
I608750
sS'from_this_person_to_poi_ratio'
p1484
F0.015215764529807932
sS'exercised_stock_options_ratio'
p1485
F0.7580059121348186
ssS'BOWEN JR RAYMOND M'
p1486
(dp1487
g3
I1858
sS'squared_salary'
p1488
F77618517201.0
sg5
I0
sS'squared_from_poi_to_this_person_ratio'
p1489
F26.88614540466392
sg7
I65907
sS'squared_expenses'
p1490
F4343732649.0
sg9
I01
sg10
I833
sg11
S'raymond.bowen@enron.com'
p1491
sg13
I974293
sS'from_poi_to_this_person_ratio'
p1492
F5.185185185185185
sS'squared_salary_ratio'
p1493
F0.010891220070078245
sg16
I0
sS'squared_bonus'
p1494
F1822500000000.0
sg18
I1593
sg19
I0
sg20
I27
sg21
I1621
sS'squared_bonus_ratio'
p1495
F0.25572826296483125
sg23
I0
sS'squared_restricted_stock_ratio'
p1496
F1.0
sg25
I1350000
sS'expenses_ratio'
p1497
F0.024688069961331126
sS'squared_from_this_person_to_poi_ratio'
p1498
F6.517650957486376e-05
sg28
I252055
sg29
I140
sS'squared_expenses_ratio'
p1499
F0.0006095007984155803
sg31
I15
sg32
I252055
sS'restricted_stock_ratio'
p1500
F1.0
sg34
I278601
sS'bonus_ratio'
p1501
F0.5056958205926081
sg36
I2669589
sS'salary_ratio'
p1502
F0.10436100837994162
sS'squared_exercised_stock_options_ratio'
p1503
F0.0
sg39
I0
sS'from_this_person_to_poi_ratio'
p1504
F0.008073196986006458
sS'exercised_stock_options_ratio'
p1505
F0.0
ssS'GILLIS JOHN'
p1506
(dp1507
g3
I0
sS'squared_salary'
p1508
F0.0
sg5
I0
sS'squared_from_poi_to_this_person_ratio'
p1509
F0.0
sg7
I0
sS'squared_expenses'
p1510
F0.0
sg9
I00
sg10
I0
sg11
I0
sg13
I0
sS'from_poi_to_this_person_ratio'
p1511
F0.0
sS'squared_salary_ratio'
p1512
F0.0
sg16
I0
sS'squared_bonus'
p1513
F0.0
sg18
I0
sg19
I0
sg20
I0
sg21
I0
sS'squared_bonus_ratio'
p1514
F0.0
sg23
I0
sS'squared_restricted_stock_ratio'
p1515
F0.7841701075136734
sg25
I0
sS'expenses_ratio'
p1516
F0.0
sS'squared_from_this_person_to_poi_ratio'
p1517
F0.0
sg28
I85641
sg29
I0
sS'squared_expenses_ratio'
p1518
F0.0
sg31
I0
sg32
I75838
sS'restricted_stock_ratio'
p1519
F0.8855337980640114
sg34
I0
sS'bonus_ratio'
p1520
F0.0
sg36
I0
sS'salary_ratio'
p1521
F0.0
sS'squared_exercised_stock_options_ratio'
p1522
F0.013102511385650523
sg39
I9803
sS'from_this_person_to_poi_ratio'
p1523
F0.0
sS'exercised_stock_options_ratio'
p1524
F0.11446620193598861
ssS'FITZGERALD JAY L'
p1525
(dp1526
g3
I936
sS'squared_salary'
p1527
F39663510649.0
sg5
I0
sS'squared_from_poi_to_this_person_ratio'
p1528
F0.00390625
sg7
I23870
sS'squared_expenses'
p1529
F569776900.0
sg9
I00
sg10
I0
sg11
S'jay.fitzgerald@enron.com'
p1530
sg13
I556416
sS'from_poi_to_this_person_ratio'
p1531
F0.0625
sS'squared_salary_ratio'
p1532
F0.019813721564164374
sg16
I0
sS'squared_bonus'
p1533
F122500000000.0
sg18
I723
sg19
I0
sg20
I16
sg21
I285414
sS'squared_bonus_ratio'
p1534
F0.06119430307340507
sg23
I0
sS'squared_restricted_stock_ratio'
p1535
F0.3482788968751486
sg25
I350000
sS'expenses_ratio'
p1536
F0.01687096293123616
sS'squared_from_this_person_to_poi_ratio'
p1537
F7.305135510263717e-05
sg28
I1621236
sg29
I1
sS'squared_expenses_ratio'
p1538
F0.00028462939022714465
sg31
I8
sg32
I956775
sS'restricted_stock_ratio'
p1539
F0.5901515880476377
sg34
I199157
sS'bonus_ratio'
p1540
F0.24737482303865338
sg36
I1414857
sS'salary_ratio'
p1541
F0.14076122180545456
sS'squared_exercised_stock_options_ratio'
p1542
F0.16797572077987324
sg39
I664461
sS'from_this_person_to_poi_ratio'
p1543
F0.008547008547008548
sS'exercised_stock_options_ratio'
p1544
F0.40984841195236227
ssS'MORAN MICHAEL P'
p1545
(dp1546
g3
I672
sS'squared_salary'
p1547
F0.0
sg5
I0
sS'squared_from_poi_to_this_person_ratio'
p1548
F0.0
sg7
I0
sS'squared_expenses'
p1549
F0.0
sg9
I00
sg10
I0
sg11
S'michael.moran@enron.com'
p1550
sg13
I0
sS'from_poi_to_this_person_ratio'
p1551
F0.0
sS'squared_salary_ratio'
p1552
F0.0
sg16
I0
sS'squared_bonus'
p1553
F0.0
sg18
I127
sg19
I0
sg20
I19
sg21
I0
sS'squared_bonus_ratio'
p1554
F0.0
sg23
I0
sS'squared_restricted_stock_ratio'
p1555
F0.534016805386184
sg25
I0
sS'expenses_ratio'
p1556
F0.0
sS'squared_from_this_person_to_poi_ratio'
p1557
F0.0
sg28
I221141
sg29
I0
sS'squared_expenses_ratio'
p1558
F0.0
sg31
I0
sg32
I161602
sS'restricted_stock_ratio'
p1559
F0.7307645348442848
sg34
I0
sS'bonus_ratio'
p1560
F0.0
sg36
I0
sS'salary_ratio'
p1561
F0.0
sS'squared_exercised_stock_options_ratio'
p1562
F0.07248773569761428
sg39
I59539
sS'from_this_person_to_poi_ratio'
p1563
F0.0
sS'exercised_stock_options_ratio'
p1564
F0.2692354651557151
ssS'REDMOND BRIAN L'
p1565
(dp1566
g3
I1671
sS'squared_salary'
p1567
F9377985600.0
sg5
I0
sS'squared_from_poi_to_this_person_ratio'
p1568
F0.8520710059171599
sg7
I14689
sS'squared_expenses'
p1569
F215766721.0
sg9
I00
sg10
I0
sg11
S'brian.redmond@enron.com'
p1570
sg13
I0
sS'from_poi_to_this_person_ratio'
p1571
F0.9230769230769231
sS'squared_salary_ratio'
p1572
F0.7539350695044036
sg16
I0
sS'squared_bonus'
p1573
F0.0
sg18
I1063
sg19
I0
sg20
I221
sg21
I0
sS'squared_bonus_ratio'
p1574
F0.0
sg23
I0
sS'squared_restricted_stock_ratio'
p1575
F0.00233512302636648
sg25
I0
sS'expenses_ratio'
p1576
F0.1317056550314268
sS'squared_from_this_person_to_poi_ratio'
p1577
F0.0008598827966497161
sg28
I7890324
sg29
I204
sS'squared_expenses_ratio'
p1578
F0.0173463795672572
sg31
I49
sg32
I381285
sS'restricted_stock_ratio'
p1579
F0.048323110685949015
sg34
I96840
sS'bonus_ratio'
p1580
F0.0
sg36
I111529
sS'salary_ratio'
p1581
F0.8682943449685732
sS'squared_exercised_stock_options_ratio'
p1582
F0.9056889016544686
sg39
I7509039
sS'from_this_person_to_poi_ratio'
p1583
F0.029323758228605626
sS'exercised_stock_options_ratio'
p1584
F0.951676889314051
ssS'BAZELIDES PHILIP J'
p1585
(dp1586
g3
I0
sS'squared_salary'
p1587
F6531549124.0
sg5
I684694
sS'squared_from_poi_to_this_person_ratio'
p1588
F0.0
sg7
I0
sS'squared_expenses'
p1589
F0.0
sg9
I00
sg10
I0
sg11
I0
sg13
I93750
sS'from_poi_to_this_person_ratio'
p1590
F0.0
sS'squared_salary_ratio'
p1591
F0.008828398893511039
sg16
I0
sS'squared_bonus'
p1592
F0.0
sg18
I0
sg19
I0
sg20
I0
sg21
I874
sS'squared_bonus_ratio'
p1593
F0.0
sg23
I0
sS'squared_restricted_stock_ratio'
p1594
F0.0
sg25
I0
sS'expenses_ratio'
p1595
F0.0
sS'squared_from_this_person_to_poi_ratio'
p1596
F0.0
sg28
I1599641
sg29
I0
sS'squared_expenses_ratio'
p1597
F0.0
sg31
I0
sg32
I0
sS'restricted_stock_ratio'
p1598
F0.0
sg34
I80818
sS'bonus_ratio'
p1599
F0.0
sg36
I860136
sS'salary_ratio'
p1600
F0.0939595598835533
sS'squared_exercised_stock_options_ratio'
p1601
F1.0
sg39
I1599641
sS'from_this_person_to_poi_ratio'
p1602
F0.0
sS'exercised_stock_options_ratio'
p1603
F1.0
ssS'BELDEN TIMOTHY N'
p1604
(dp1605
g3
I7991
sS'squared_salary'
p1606
F45795572001.0
sg5
I2144013
sS'squared_from_poi_to_this_person_ratio'
p1607
F0.22191107164811144
sg7
I17355
sS'squared_expenses'
p1608
F301196025.0
sg9
I01
sg10
I2334434
sg11
S'tim.belden@enron.com'
p1609
sg13
I0
sS'from_poi_to_this_person_ratio'
p1610
F0.47107438016528924
sS'squared_salary_ratio'
p1611
F0.0015130062736729481
sg16
I0
sS'squared_bonus'
p1612
F27562489500001.0
sg18
I5521
sg19
I0
sg20
I484
sg21
I210698
sS'squared_bonus_ratio'
p1613
F0.9106168502630702
sg23
I0
sS'squared_restricted_stock_ratio'
p1614
F0.02012538067112596
sg25
I5249999
sS'expenses_ratio'
p1615
F0.003154519660536968
sS'squared_from_this_person_to_poi_ratio'
p1616
F0.00018266075551990108
sg28
I1110705
sg29
I228
sS'squared_expenses_ratio'
p1617
F9.950994288714269e-06
sg31
I108
sg32
I157569
sS'restricted_stock_ratio'
p1618
F0.1418639512741907
sg34
I213999
sS'bonus_ratio'
p1619
F0.9542624640333864
sg36
I5501630
sS'salary_ratio'
p1620
F0.03889738132153562
sS'squared_exercised_stock_options_ratio'
p1621
F0.7363974781227445
sg39
I953136
sS'from_this_person_to_poi_ratio'
p1622
F0.013515204605180828
sS'exercised_stock_options_ratio'
p1623
F0.8581360487258093
ssS'DURAN WILLIAM D'
p1624
(dp1625
g3
I904
sS'squared_salary'
p1626
F44391118864.0
sg5
I0
sS'squared_from_poi_to_this_person_ratio'
p1627
F78.02777777777779
sg7
I25785
sS'squared_expenses'
p1628
F664866225.0
sg9
I00
sg10
I0
sg11
S'w.duran@enron.com'
p1629
sg13
I1105218
sS'from_poi_to_this_person_ratio'
p1630
F8.833333333333334
sS'squared_salary_ratio'
p1631
F0.01013091093603919
sg16
I0
sS'squared_bonus'
p1632
F562500000000.0
sg18
I599
sg19
I0
sg20
I12
sg21
I1568
sS'squared_bonus_ratio'
p1633
F0.12837336718141354
sg23
I0
sS'squared_restricted_stock_ratio'
p1634
F0.013272186892796108
sg25
I750000
sS'expenses_ratio'
p1635
F0.01231808903133529
sS'squared_from_this_person_to_poi_ratio'
p1636
F1.1013000234944005e-05
sg28
I1640910
sg29
I106
sS'squared_expenses_ratio'
p1637
F0.00015173531738390278
sg31
I3
sg32
I189041
sS'restricted_stock_ratio'
p1638
F0.11520497772577411
sg34
I210692
sS'bonus_ratio'
p1639
F0.3582922929416896
sg36
I2093263
sS'salary_ratio'
p1640
F0.10065242637929396
sS'squared_exercised_stock_options_ratio'
p1641
F0.7828622314412479
sg39
I1451869
sS'from_this_person_to_poi_ratio'
p1642
F0.00331858407079646
sS'exercised_stock_options_ratio'
p1643
F0.8847950222742259
ssS'THORN TERENCE H'
p1644
(dp1645
g3
I266
sS'squared_salary'
p1646
F49325300649.0
sg5
I16586
sS'squared_from_poi_to_this_person_ratio'
p1647
F0.0
sg7
I46145
sS'squared_expenses'
p1648
F2129361025.0
sg9
I00
sg10
I0
sg11
S'terence.thorn@enron.com'
p1649
sg13
I200000
sS'from_poi_to_this_person_ratio'
p1650
F0.0
sS'squared_salary_ratio'
p1651
F0.05937466654507648
sg16
I0
sS'squared_bonus'
p1652
F0.0
sg18
I73
sg19
I0
sg20
I41
sg21
I426629
sS'squared_bonus_ratio'
p1653
F0.0
sg23
I0
sS'squared_restricted_stock_ratio'
p1654
F0.0057497648626052165
sg25
I0
sS'expenses_ratio'
p1655
F0.050627953388710116
sS'squared_from_this_person_to_poi_ratio'
p1656
F0.0
sg28
I4817796
sg29
I0
sS'squared_expenses_ratio'
p1657
F0.002563189664329404
sg31
I0
sg32
I365320
sS'restricted_stock_ratio'
p1658
F0.07582720397459751
sg34
I222093
sS'bonus_ratio'
p1659
F0.0
sg36
I911453
sS'salary_ratio'
p1660
F0.24366917438419755
sS'squared_exercised_stock_options_ratio'
p1661
F0.8540953569134102
sg39
I4452476
sS'from_this_person_to_poi_ratio'
p1662
F0.0
sS'exercised_stock_options_ratio'
p1663
F0.9241727960254025
ssS'FASTOW ANDREW S'
p1664
(dp1665
g3
I0
sS'squared_salary'
p1666
F194214727204.0
sg5
I0
sS'squared_from_poi_to_this_person_ratio'
p1667
F0.0
sg7
I55921
sS'squared_expenses'
p1668
F3127158241.0
sg9
I01
sg10
I1386055
sg11
S'andrew.fastow@enron.com'
p1669
sg13
I1736055
sS'from_poi_to_this_person_ratio'
p1670
F0.0
sS'squared_salary_ratio'
p1671
F0.033051196591500596
sg16
I0
sS'squared_bonus'
p1672
F1690000000000.0
sg18
I0
sg19
I0
sg20
I0
sg21
I277464
sS'squared_bonus_ratio'
p1673
F0.2876018880945379
sg23
I0
sS'squared_restricted_stock_ratio'
p1674
F1.0
sg25
I1300000
sS'expenses_ratio'
p1675
F0.02306892957048088
sS'squared_from_this_person_to_poi_ratio'
p1676
F0.0
sg28
I1794412
sg29
I0
sS'squared_expenses_ratio'
p1677
F0.0005321755115278072
sg31
I0
sg32
I1794412
sS'restricted_stock_ratio'
p1678
F1.0
sg34
I440698
sS'bonus_ratio'
p1679
F0.5362852674599013
sg36
I2424083
sS'salary_ratio'
p1680
F0.1817998806146489
sS'squared_exercised_stock_options_ratio'
p1681
F0.0
sg39
I0
sS'from_this_person_to_poi_ratio'
p1682
F0.0
sS'exercised_stock_options_ratio'
p1683
F0.0
ssS'FOY JOE'
p1684
(dp1685
g3
I57
sS'squared_salary'
p1686
F0.0
sg5
I181755
sS'squared_from_poi_to_this_person_ratio'
p1687
F0.0
sg7
I0
sS'squared_expenses'
p1688
F0.0
sg9
I00
sg10
I0
sg11
S'tracy.foy@enron.com'
p1689
sg13
I0
sS'from_poi_to_this_person_ratio'
p1690
F0.0
sS'squared_salary_ratio'
p1691
F0.0
sg16
I0
sS'squared_bonus'
p1692
F0.0
sg18
I2
sg19
I0
sg20
I13
sg21
I0
sS'squared_bonus_ratio'
p1693
F0.0
sg23
I0
sS'squared_restricted_stock_ratio'
p1694
F0.0
sg25
I0
sS'expenses_ratio'
p1695
F0.0
sS'squared_from_this_person_to_poi_ratio'
p1696
F0.0
sg28
I343434
sg29
I0
sS'squared_expenses_ratio'
p1697
F0.0
sg31
I0
sg32
I0
sS'restricted_stock_ratio'
p1698
F0.0
sg34
I0
sS'bonus_ratio'
p1699
F0.0
sg36
I181755
sS'salary_ratio'
p1700
F0.0
sS'squared_exercised_stock_options_ratio'
p1701
F1.0
sg39
I343434
sS'from_this_person_to_poi_ratio'
p1702
F0.0
sS'exercised_stock_options_ratio'
p1703
F1.0
ssS'CALGER CHRISTOPHER F'
p1704
(dp1705
g3
I2598
sS'squared_salary'
p1706
F57690755721.0
sg5
I0
sS'squared_from_poi_to_this_person_ratio'
p1707
F1.9097704475308641
sg7
I35818
sS'squared_expenses'
p1708
F1282929124.0
sg9
I01
sg10
I262500
sg11
S'christopher.calger@enron.com'
p1709
sg13
I375304
sS'from_poi_to_this_person_ratio'
p1710
F1.3819444444444444
sS'squared_salary_ratio'
p1711
F0.02146796802897714
sg16
I0
sS'squared_bonus'
p1712
F1562500000000.0
sg18
I2188
sg19
I0
sg20
I144
sg21
I486
sS'squared_bonus_ratio'
p1713
F0.581439775334171
sg23
I0
sS'squared_restricted_stock_ratio'
p1714
F1.0
sg25
I1250000
sS'expenses_ratio'
p1715
F0.021849609924254117
sS'squared_from_this_person_to_poi_ratio'
p1716
F9.259802501005986e-05
sg28
I126027
sg29
I199
sS'squared_expenses_ratio'
p1717
F0.000477405453842064
sg31
I25
sg32
I126027
sS'restricted_stock_ratio'
p1718
F1.0
sg34
I240189
sS'bonus_ratio'
p1719
F0.7625219835087845
sg36
I1639297
sS'salary_ratio'
p1720
F0.14651951415759315
sS'squared_exercised_stock_options_ratio'
p1721
F0.0
sg39
I0
sS'from_this_person_to_poi_ratio'
p1722
F0.00962278675904542
sS'exercised_stock_options_ratio'
p1723
F0.0
ssS'RICE KENNETH D'
p1724
(dp1725
g3
I905
sS'squared_salary'
p1726
F176934644496.0
sg5
I0
sS'squared_from_poi_to_this_person_ratio'
p1727
F5.4444444444444455
sg7
I46950
sS'squared_expenses'
p1728
F2204302500.0
sg9
I01
sg10
I3504386
sg11
S'ken.rice@enron.com'
p1729
sg13
I1617011
sS'from_poi_to_this_person_ratio'
p1730
F2.3333333333333335
sS'squared_salary_ratio'
p1731
F0.6936559675933599
sg16
I0
sS'squared_bonus'
p1732
F3062500000000.0
sg18
I864
sg19
I0
sg20
I18
sg21
I174839
sS'squared_bonus_ratio'
p1733
F12.006249012486018
sg23
I0
sS'squared_restricted_stock_ratio'
p1734
F0.01486424459086881
sg25
I1750000
sS'expenses_ratio'
p1735
F0.09296109296109296
sS'squared_from_this_person_to_poi_ratio'
p1736
F1.9535423216629532e-05
sg28
I22542539
sg29
I42
sS'squared_expenses_ratio'
p1737
F0.008641764804520969
sg31
I4
sg32
I2748364
sS'restricted_stock_ratio'
p1738
F0.12191900832466121
sg34
I420636
sS'bonus_ratio'
p1739
F3.465003465003465
sg36
I505050
sS'salary_ratio'
p1740
F0.8328601128601129
sS'squared_exercised_stock_options_ratio'
p1741
F0.7710262279415464
sg39
I19794175
sS'from_this_person_to_poi_ratio'
p1742
F0.004419889502762431
sS'exercised_stock_options_ratio'
p1743
F0.8780809916753388
ssS'KAMINSKI WINCENTY J'
p1744
(dp1745
g3
I4607
sS'squared_salary'
p1746
F75680560201.0
sg5
I0
sS'squared_from_poi_to_this_person_ratio'
p1747
F8.142824502358619e-06
sg7
I83585
sS'squared_expenses'
p1748
F6986452225.0
sg9
I00
sg10
I0
sg11
S'vince.kaminski@enron.com'
p1749
sg13
I323466
sS'from_poi_to_this_person_ratio'
p1750
F0.002853563474387528
sS'squared_salary_ratio'
p1751
F0.06407200215257734
sg16
I0
sS'squared_bonus'
p1752
F160000000000.0
sg18
I583
sg19
I0
sg20
I14368
sg21
I4669
sS'squared_bonus_ratio'
p1753
F0.13545777564522987
sg23
I0
sS'squared_restricted_stock_ratio'
p1754
F0.016672266116748324
sg25
I400000
sS'expenses_ratio'
p1755
F0.07690778886311546
sS'squared_from_this_person_to_poi_ratio'
p1756
F0.001377703609643765
sg28
I976037
sg29
I41
sS'squared_expenses_ratio'
p1757
F0.0059148079878135465
sg31
I171
sg32
I126027
sS'restricted_stock_ratio'
p1758
F0.12912112962930708
sg34
I275101
sS'bonus_ratio'
p1759
F0.368045887961311
sg36
I1086821
sS'salary_ratio'
p1760
F0.2531244795601116
sS'squared_exercised_stock_options_ratio'
p1761
F0.7584300068581341
sg39
I850010
sS'from_this_person_to_poi_ratio'
p1762
F0.03711742999782939
sS'exercised_stock_options_ratio'
p1763
F0.8708788703706929
ssS'COX DAVID'
p1764
(dp1765
g3
I102
sS'squared_salary'
p1766
F98776946944.0
sg5
I0
sS'squared_from_poi_to_this_person_ratio'
p1767
F0.0
sg7
I27861
sS'squared_expenses'
p1768
F776235321.0
sg9
I00
sg10
I41250
sg11
S'chip.cox@enron.com'
p1769
sg13
I0
sS'from_poi_to_this_person_ratio'
p1770
F0.0
sS'squared_salary_ratio'
p1771
F0.08142747627631297
sg16
I0
sS'squared_bonus'
p1772
F640000000000.0
sg18
I71
sg19
I0
sg20
I33
sg21
I494
sS'squared_bonus_ratio'
p1773
F0.5275885358795839
sg23
I0
sS'squared_restricted_stock_ratio'
p1774
F0.5819043101206838
sg25
I800000
sS'expenses_ratio'
p1775
F0.025296147696598763
sS'squared_from_this_person_to_poi_ratio'
p1776
F0.0015378700499807767
sg28
I495633
sg29
I0
sS'squared_expenses_ratio'
p1777
F0.0006398950882881389
sg31
I4
sg32
I378082
sS'restricted_stock_ratio'
p1778
F0.7628265268858208
sg34
I314288
sS'bonus_ratio'
p1779
F0.7263529003725282
sg36
I1101393
sS'salary_ratio'
p1780
F0.28535500044035145
sS'squared_exercised_stock_options_ratio'
p1781
F0.05625125634904231
sg39
I117551
sS'from_this_person_to_poi_ratio'
p1782
F0.0392156862745098
sS'exercised_stock_options_ratio'
p1783
F0.23717347311417925
ssS'OVERDYKE JR JERE C'
p1784
(dp1785
g3
I0
sS'squared_salary'
p1786
F9013793481.0
sg5
I0
sS'squared_from_poi_to_this_person_ratio'
p1787
F0.0
sg7
I18834
sS'squared_expenses'
p1788
F354719556.0
sg9
I00
sg10
I0
sg11
S'jere.overdyke@enron.com'
p1789
sg13
I135836
sS'from_poi_to_this_person_ratio'
p1790
F0.0
sS'squared_salary_ratio'
p1791
F0.1444667621897708
sg16
I0
sS'squared_bonus'
p1792
F0.0
sg18
I0
sg19
I0
sg20
I0
sg21
I176
sS'squared_bonus_ratio'
p1793
F0.0
sg23
I0
sS'squared_restricted_stock_ratio'
p1794
F0.07800887188455671
sg25
I0
sS'expenses_ratio'
p1795
F0.07540024100533654
sS'squared_from_this_person_to_poi_ratio'
p1796
F0.0
sg28
I7307594
sg29
I0
sS'squared_expenses_ratio'
p1797
F0.005685196343662834
sg31
I0
sg32
I2041016
sS'restricted_stock_ratio'
p1798
F0.2793006836449863
sg34
I94941
sS'bonus_ratio'
p1799
F0.0
sg36
I249787
sS'salary_ratio'
p1800
F0.38008783483527964
sS'squared_exercised_stock_options_ratio'
p1801
F0.5194075045945842
sg39
I5266578
sS'from_this_person_to_poi_ratio'
p1802
F0.0
sS'exercised_stock_options_ratio'
p1803
F0.7206993163550137
ssS'PEREIRA PAULO V. FERRAZ'
p1804
(dp1805
g3
I0
sS'squared_salary'
p1806
F0.0
sg5
I0
sS'squared_from_poi_to_this_person_ratio'
p1807
F0.0
sg7
I27942
sS'squared_expenses'
p1808
F780755364.0
sg9
I00
sg10
I101250
sg11
I0
sg13
I0
sS'from_poi_to_this_person_ratio'
p1809
F0.0
sS'squared_salary_ratio'
p1810
F0.0
sg16
I0
sS'squared_bonus'
p1811
F0.0
sg18
I0
sg19
I0
sg20
I0
sg21
I0
sS'squared_bonus_ratio'
p1812
F0.0
sg23
I101250
sS'squared_restricted_stock_ratio'
p1813
F0.0
sg25
I0
sS'expenses_ratio'
p1814
F1.0
sS'squared_from_this_person_to_poi_ratio'
p1815
F0.0
sg28
I0
sg29
I0
sS'squared_expenses_ratio'
p1816
F1.0
sg31
I0
sg32
I0
sS'restricted_stock_ratio'
p1817
F0.0
sg34
I0
sS'bonus_ratio'
p1818
F0.0
sg36
I27942
sS'salary_ratio'
p1819
F0.0
sS'squared_exercised_stock_options_ratio'
p1820
F0.0
sg39
I0
sS'from_this_person_to_poi_ratio'
p1821
F0.0
sS'exercised_stock_options_ratio'
p1822
F0.0
ssS'STABLER FRANK'
p1823
(dp1824
g3
I0
sS'squared_salary'
p1825
F57361208004.0
sg5
I0
sS'squared_from_poi_to_this_person_ratio'
p1826
F0.0
sg7
I16514
sS'squared_expenses'
p1827
F272712196.0
sg9
I00
sg10
I0
sg11
S'frank.stabler@enron.com'
p1828
sg13
I0
sS'from_poi_to_this_person_ratio'
p1829
F0.0
sS'squared_salary_ratio'
p1830
F0.0463810697173123
sg16
I0
sS'squared_bonus'
p1831
F250000000000.0
sg18
I0
sg19
I0
sg20
I0
sg21
I356071
sS'squared_bonus_ratio'
p1832
F0.2021447565839181
sg23
I0
sS'squared_restricted_stock_ratio'
p1833
F1.0
sg25
I500000
sS'expenses_ratio'
p1834
F0.01484955763353047
sS'squared_from_this_person_to_poi_ratio'
p1835
F0.0
sg28
I511734
sg29
I0
sS'squared_expenses_ratio'
p1836
F0.00022050936191154308
sg31
I0
sg32
I511734
sS'restricted_stock_ratio'
p1837
F1.0
sg34
I239502
sS'bonus_ratio'
p1838
F0.44960511183027946
sg36
I1112087
sS'salary_ratio'
p1839
F0.21536264698715119
sS'squared_exercised_stock_options_ratio'
p1840
F0.0
sg39
I0
sS'from_this_person_to_poi_ratio'
p1841
F0.0
sS'exercised_stock_options_ratio'
p1842
F0.0
ssS'SKILLING JEFFREY K'
p1843
(dp1844
g3
I3627
sS'squared_salary'
p1845
F1234894342564.0
sg5
I0
sS'squared_from_poi_to_this_person_ratio'
p1846
F0.6639231824417009
sg7
I29336
sS'squared_expenses'
p1847
F860600896.0
sg9
I01
sg10
I0
sg11
S'jeff.skilling@enron.com'
p1848
sg13
I1920000
sS'from_poi_to_this_person_ratio'
p1849
F0.8148148148148148
sS'squared_salary_ratio'
p1850
F0.016380177699220996
sg16
I0
sS'squared_bonus'
p1851
F31360000000000.0
sg18
I2042
sg19
I0
sg20
I108
sg21
I22122
sS'squared_bonus_ratio'
p1852
F0.4159727313844652
sg23
I0
sS'squared_restricted_stock_ratio'
p1853
F0.06878725445170489
sg25
I5600000
sS'expenses_ratio'
p1854
F0.003378666306717852
sS'squared_from_this_person_to_poi_ratio'
p1855
F6.841438042910868e-05
sg28
I26093672
sg29
I88
sS'squared_expenses_ratio'
p1856
F1.141538601215045e-05
sg31
I30
sg32
I6843672
sS'restricted_stock_ratio'
p1857
F0.2622732438730739
sg34
I1111258
sS'bonus_ratio'
p1858
F0.6449594804206426
sg36
I8682716
sS'salary_ratio'
p1859
F0.12798506826665756
sS'squared_exercised_stock_options_ratio'
p1860
F0.544240766705557
sg39
I19250000
sS'from_this_person_to_poi_ratio'
p1861
F0.008271298593879239
sS'exercised_stock_options_ratio'
p1862
F0.7377267561269261
ssS'BLAKE JR. NORMAN P'
p1863
(dp1864
g3
I0
sS'squared_salary'
p1865
F0.0
sg5
I0
sS'squared_from_poi_to_this_person_ratio'
p1866
F0.0
sg7
I1279
sS'squared_expenses'
p1867
F1635841.0
sg9
I00
sg10
I113784
sg11
I0
sg13
I0
sS'from_poi_to_this_person_ratio'
p1868
F0.0
sS'squared_salary_ratio'
p1869
F0.0
sg16
I0
sS'squared_bonus'
p1870
F0.0
sg18
I0
sg19
I0
sg20
I0
sg21
I0
sS'squared_bonus_ratio'
p1871
F0.0
sg23
I113784
sS'squared_restricted_stock_ratio'
p1872
F0.0
sg25
I0
sS'expenses_ratio'
p1873
F1.0
sS'squared_from_this_person_to_poi_ratio'
p1874
F0.0
sg28
I0
sg29
I0
sS'squared_expenses_ratio'
p1875
F1.0
sg31
I0
sg32
I0
sS'restricted_stock_ratio'
p1876
F0.0
sg34
I0
sS'bonus_ratio'
p1877
F0.0
sg36
I1279
sS'salary_ratio'
p1878
F0.0
sS'squared_exercised_stock_options_ratio'
p1879
F0.0
sg39
I0
sS'from_this_person_to_poi_ratio'
p1880
F0.0
sS'exercised_stock_options_ratio'
p1881
F0.0
ssS'SHERRICK JEFFREY B'
p1882
(dp1883
g3
I613
sS'squared_salary'
p1884
F0.0
sg5
I0
sS'squared_from_poi_to_this_person_ratio'
p1885
F2.4336
sg7
I0
sS'squared_expenses'
p1886
F0.0
sg9
I00
sg10
I0
sg11
S'jeffrey.sherrick@enron.com'
p1887
sg13
I0
sS'from_poi_to_this_person_ratio'
p1888
F1.56
sS'squared_salary_ratio'
p1889
F0.0
sg16
I0
sS'squared_bonus'
p1890
F0.0
sg18
I583
sg19
I0
sg20
I25
sg21
I0
sS'squared_bonus_ratio'
p1891
F0.0
sg23
I0
sS'squared_restricted_stock_ratio'
p1892
F0.049088202443040144
sg25
I0
sS'expenses_ratio'
p1893
F0.0
sS'squared_from_this_person_to_poi_ratio'
p1894
F0.0008622318498864995
sg28
I1832468
sg29
I39
sS'squared_expenses_ratio'
p1895
F0.0
sg31
I18
sg32
I405999
sS'restricted_stock_ratio'
p1896
F0.22155857564770573
sg34
I0
sS'bonus_ratio'
p1897
F0.0
sg36
I0
sS'salary_ratio'
p1898
F0.0
sS'squared_exercised_stock_options_ratio'
p1899
F0.6059710511476286
sg39
I1426469
sS'from_this_person_to_poi_ratio'
p1900
F0.02936378466557912
sS'exercised_stock_options_ratio'
p1901
F0.7784414243522942
ssS'PRENTICE JAMES'
p1902
(dp1903
g3
I0
sS'squared_salary'
p1904
F0.0
sg5
I564348
sS'squared_from_poi_to_this_person_ratio'
p1905
F0.0
sg7
I0
sS'squared_expenses'
p1906
F0.0
sg9
I00
sg10
I0
sg11
S'james.prentice@enron.com'
p1907
sg13
I0
sS'from_poi_to_this_person_ratio'
p1908
F0.0
sS'squared_salary_ratio'
p1909
F0.0
sg16
I0
sS'squared_bonus'
p1910
F0.0
sg18
I0
sg19
I0
sg20
I0
sg21
I0
sS'squared_bonus_ratio'
p1911
F0.0
sg23
I0
sS'squared_restricted_stock_ratio'
p1912
F0.03636122114205292
sg25
I0
sS'expenses_ratio'
p1913
F0.0
sS'squared_from_this_person_to_poi_ratio'
p1914
F0.0
sg28
I1095040
sg29
I0
sS'squared_expenses_ratio'
p1915
F0.0
sg31
I0
sg32
I208809
sS'restricted_stock_ratio'
p1916
F0.19068618497954412
sg34
I0
sS'bonus_ratio'
p1917
F0.0
sg36
I564348
sS'salary_ratio'
p1918
F0.0
sS'squared_exercised_stock_options_ratio'
p1919
F0.6549888511829647
sg39
I886231
sS'from_this_person_to_poi_ratio'
p1920
F0.0
sS'exercised_stock_options_ratio'
p1921
F0.8093138150204559
ssS'GRAY RODNEY'
p1922
(dp1923
g3
I0
sS'squared_salary'
p1924
F43758225.0
sg5
I93585
sS'squared_from_poi_to_this_person_ratio'
p1925
F0.0
sg7
I0
sS'squared_expenses'
p1926
F0.0
sg9
I00
sg10
I0
sg11
I0
sg13
I365625
sS'from_poi_to_this_person_ratio'
p1927
F0.0
sS'squared_salary_ratio'
p1928
F3.328065662362757e-05
sg16
I0
sS'squared_bonus'
p1929
F0.0
sg18
I0
sg19
I0
sg20
I0
sg21
I680833
sS'squared_bonus_ratio'
p1930
F0.0
sg23
I0
sS'squared_restricted_stock_ratio'
p1931
F0.0
sg25
I0
sS'expenses_ratio'
p1932
F0.0
sS'squared_from_this_person_to_poi_ratio'
p1933
F0.0
sg28
I0
sg29
I0
sS'squared_expenses_ratio'
p1934
F0.0
sg31
I0
sg32
I0
sS'restricted_stock_ratio'
p1935
F0.0
sg34
I6615
sS'bonus_ratio'
p1936
F0.0
sg36
I1146658
sS'salary_ratio'
p1937
F0.005768938951282772
sS'squared_exercised_stock_options_ratio'
p1938
F0.0
sg39
I0
sS'from_this_person_to_poi_ratio'
p1939
F0.0
sS'exercised_stock_options_ratio'
p1940
F0.0
ssS'PICKERING MARK R'
p1941
(dp1942
g3
I898
sS'squared_salary'
p1943
F429073471369.0
sg5
I0
sS'squared_from_poi_to_this_person_ratio'
p1944
F0.010915571396747604
sg7
I31653
sS'squared_expenses'
p1945
F1001912409.0
sg9
I00
sg10
I0
sg11
S'mark.pickering@enron.com'
p1946
sg13
I0
sS'from_poi_to_this_person_ratio'
p1947
F0.1044776119402985
sS'squared_salary_ratio'
p1948
F0.22313767138081392
sg16
I0
sS'squared_bonus'
p1949
F90000000000.0
sg18
I728
sg19
I400000
sg20
I67
sg21
I0
sS'squared_bonus_ratio'
p1950
F0.046804083133358175
sg23
I0
sS'squared_restricted_stock_ratio'
p1951
F0.0
sg25
I300000
sS'expenses_ratio'
p1952
F0.022826298595937086
sS'squared_from_this_person_to_poi_ratio'
p1953
F0.0
sg28
I28798
sg29
I7
sS'squared_expenses_ratio'
p1954
F0.0005210399075908793
sg31
I0
sg32
I0
sS'restricted_stock_ratio'
p1955
F0.0
sg34
I655037
sS'bonus_ratio'
p1956
F0.21634251346732147
sg36
I1386690
sS'salary_ratio'
p1957
F0.47237450331364617
sS'squared_exercised_stock_options_ratio'
p1958
F1.0
sg39
I28798
sS'from_this_person_to_poi_ratio'
p1959
F0.0
sS'exercised_stock_options_ratio'
p1960
F1.0
ssS'NOLES JAMES L'
p1961
(dp1962
g3
I0
sS'squared_salary'
p1963
F0.0
sg5
I774401
sS'squared_from_poi_to_this_person_ratio'
p1964
F0.0
sg7
I0
sS'squared_expenses'
p1965
F0.0
sg9
I00
sg10
I0
sg11
I0
sg13
I0
sS'from_poi_to_this_person_ratio'
p1966
F0.0
sS'squared_salary_ratio'
p1967
F0.0
sg16
I94556
sS'squared_bonus'
p1968
F0.0
sg18
I0
sg19
I0
sg20
I0
sg21
I0
sS'squared_bonus_ratio'
p1969
F0.0
sg23
I0
sS'squared_restricted_stock_ratio'
p1970
F1.5786775260227135
sg25
I0
sS'expenses_ratio'
p1971
F0.0
sS'squared_from_this_person_to_poi_ratio'
p1972
F0.0
sg28
I368705
sg29
I0
sS'squared_expenses_ratio'
p1973
F0.0
sg31
I0
sg32
I463261
sS'restricted_stock_ratio'
p1974
F1.2564543469711558
sg34
I0
sS'bonus_ratio'
p1975
F0.0
sg36
I774401
sS'salary_ratio'
p1976
F0.0
sS'squared_exercised_stock_options_ratio'
p1977
F0.0
sg39
I0
sS'from_this_person_to_poi_ratio'
p1978
F0.0
sS'exercised_stock_options_ratio'
p1979
F0.0
ssS'KEAN STEVEN J'
p1980
(dp1981
g3
I12754
sS'squared_salary'
p1982
F163489218244.0
sg5
I0
sS'squared_from_poi_to_this_person_ratio'
p1983
F0.0004290334744831575
sg7
I41953
sS'squared_expenses'
p1984
F1760054209.0
sg9
I00
sg10
I0
sg11
S'steven.kean@enron.com'
p1985
sg13
I300000
sS'from_poi_to_this_person_ratio'
p1986
F0.020713123243083296
sS'squared_salary_ratio'
p1987
F0.05353574040331774
sg16
I0
sS'squared_bonus'
p1988
F1000000000000.0
sg18
I3639
sg19
I0
sg20
I6759
sg21
I1231
sS'squared_bonus_ratio'
p1989
F0.3274573147901298
sg23
I0
sS'squared_restricted_stock_ratio'
p1990
F0.450786418207922
sg25
I1000000
sS'expenses_ratio'
p1991
F0.02400713696308258
sS'squared_from_this_person_to_poi_ratio'
p1992
F0.0009207232387424926
sg28
I6153642
sg29
I140
sS'squared_expenses_ratio'
p1993
F0.000576342625164206
sg31
I387
sg32
I4131594
sS'restricted_stock_ratio'
p1994
F0.6714062989039662
sg34
I404338
sS'bonus_ratio'
p1995
F0.5722388616566773
sg36
I1747522
sS'salary_ratio'
p1996
F0.23137791684453757
sS'squared_exercised_stock_options_ratio'
p1997
F0.10797382039998965
sg39
I2022048
sS'from_this_person_to_poi_ratio'
p1998
F0.03034342167163243
sS'exercised_stock_options_ratio'
p1999
F0.32859370109603386
ssS'FOWLER PEGGY'
p2000
(dp2001
g3
I517
sS'squared_salary'
p2002
F0.0
sg5
I0
sS'squared_from_poi_to_this_person_ratio'
p2003
F0.0
sg7
I0
sS'squared_expenses'
p2004
F0.0
sg9
I00
sg10
I0
sg11
S'kulvinder.fowler@enron.com'
p2005
sg13
I0
sS'from_poi_to_this_person_ratio'
p2006
F0.0
sS'squared_salary_ratio'
p2007
F0.0
sg16
I0
sS'squared_bonus'
p2008
F0.0
sg18
I10
sg19
I0
sg20
I36
sg21
I0
sS'squared_bonus_ratio'
p2009
F0.0
sg23
I0
sS'squared_restricted_stock_ratio'
p2010
F0.08833506043979497
sg25
I0
sS'expenses_ratio'
p2011
F0.0
sS'squared_from_this_person_to_poi_ratio'
p2012
F0.0
sg28
I1884748
sg29
I0
sS'squared_expenses_ratio'
p2013
F0.0
sg31
I0
sg32
I560170
sS'restricted_stock_ratio'
p2014
F0.29721214719421374
sg34
I0
sS'bonus_ratio'
p2015
F0.0
sg36
I0
sS'salary_ratio'
p2016
F0.0
sS'squared_exercised_stock_options_ratio'
p2017
F0.4939107660513675
sg39
I1324578
sS'from_this_person_to_poi_ratio'
p2018
F0.0
sS'exercised_stock_options_ratio'
p2019
F0.7027878528057863
ssS'WASAFF GEORGE'
p2020
(dp2021
g3
I400
sS'squared_salary'
p2022
F67597920016.0
sg5
I831299
sS'squared_from_poi_to_this_person_ratio'
p2023
F0.5377777777777777
sg7
I0
sS'squared_expenses'
p2024
F0.0
sg9
I00
sg10
I583325
sg11
S'george.wasaff@enron.com'
p2025
sg13
I200000
sS'from_poi_to_this_person_ratio'
p2026
F0.7333333333333333
sS'squared_salary_ratio'
p2027
F0.06317721942851366
sg16
I0
sS'squared_bonus'
p2028
F105625000000.0
sg18
I337
sg19
I0
sg20
I30
sg21
I1425
sS'squared_bonus_ratio'
p2029
F0.09871744279346578
sg23
I0
sS'squared_restricted_stock_ratio'
p2030
F0.03562957381354275
sg25
I325000
sS'expenses_ratio'
p2031
F0.0
sS'squared_from_this_person_to_poi_ratio'
p2032
F0.00030625000000000004
sg28
I2056427
sg29
I22
sS'squared_expenses_ratio'
p2033
F0.0
sg31
I7
sg32
I388167
sS'restricted_stock_ratio'
p2034
F0.1887579768209618
sg34
I259996
sS'bonus_ratio'
p2035
F0.3141933207333755
sg36
I1034395
sS'salary_ratio'
p2036
F0.2513507895919837
sS'squared_exercised_stock_options_ratio'
p2037
F0.6581136201716191
sg39
I1668260
sS'from_this_person_to_poi_ratio'
p2038
F0.0175
sS'exercised_stock_options_ratio'
p2039
F0.8112420231790382
ssS'WHITE JR THOMAS E'
p2040
(dp2041
g3
I0
sS'squared_salary'
p2042
F100833556849.0
sg5
I0
sS'squared_from_poi_to_this_person_ratio'
p2043
F0.0
sg7
I81353
sS'squared_expenses'
p2044
F6618310609.0
sg9
I00
sg10
I0
sg11
S'thomas.white@enron.com'
p2045
sg13
I0
sS'from_poi_to_this_person_ratio'
p2046
F0.0
sS'squared_salary_ratio'
p2047
F0.026948272485647583
sg16
I0
sS'squared_bonus'
p2048
F202500000000.0
sg18
I0
sg19
I0
sg20
I0
sg21
I1085463
sS'squared_bonus_ratio'
p2049
F0.05411913800200092
sg23
I0
sS'squared_restricted_stock_ratio'
p2050
F0.8360413726946124
sg25
I450000
sS'expenses_ratio'
p2051
F0.042056826059692125
sS'squared_from_this_person_to_poi_ratio'
p2052
F0.0
sg28
I15144123
sg29
I0
sS'squared_expenses_ratio'
p2053
F0.0017687766182151986
sg31
I0
sg32
I13847074
sS'restricted_stock_ratio'
p2054
F0.9143529803607644
sg34
I317543
sS'bonus_ratio'
p2055
F0.23263520370313887
sg36
I1934359
sS'salary_ratio'
p2056
F0.1641592899766796
sS'squared_exercised_stock_options_ratio'
p2057
F0.007335411973083614
sg39
I1297049
sS'from_this_person_to_poi_ratio'
p2058
F0.0
sS'exercised_stock_options_ratio'
p2059
F0.08564701963923563
ssS'CHRISTODOULOU DIOMEDES'
p2060
(dp2061
g3
I0
sS'squared_salary'
p2062
F0.0
sg5
I0
sS'squared_from_poi_to_this_person_ratio'
p2063
F0.0
sg7
I0
sS'squared_expenses'
p2064
F0.0
sg9
I00
sg10
I0
sg11
S'diomedes.christodoulou@enron.com'
p2065
sg13
I0
sS'from_poi_to_this_person_ratio'
p2066
F0.0
sS'squared_salary_ratio'
p2067
F0.0
sg16
I0
sS'squared_bonus'
p2068
F0.0
sg18
I0
sg19
I0
sg20
I0
sg21
I0
sS'squared_bonus_ratio'
p2069
F0.0
sg23
I0
sS'squared_restricted_stock_ratio'
p2070
F0.024468617911109863
sg25
I0
sS'expenses_ratio'
p2071
F0.0
sS'squared_from_this_person_to_poi_ratio'
p2072
F0.0
sg28
I6077885
sg29
I0
sS'squared_expenses_ratio'
p2073
F0.0
sg31
I0
sg32
I950730
sS'restricted_stock_ratio'
p2074
F0.15642447989720107
sg34
I0
sS'bonus_ratio'
p2075
F0.0
sg36
I0
sS'salary_ratio'
p2076
F0.0
sS'squared_exercised_stock_options_ratio'
p2077
F0.7116196581167077
sg39
I5127155
sS'from_this_person_to_poi_ratio'
p2078
F0.0
sS'exercised_stock_options_ratio'
p2079
F0.8435755201027989
ssS'ALLEN PHILLIP K'
p2080
(dp2081
g3
I2902
sS'squared_salary'
p2082
F40785822025.0
sg5
I2869717
sS'squared_from_poi_to_this_person_ratio'
p2083
F0.000458486620555103
sg7
I13868
sS'squared_expenses'
p2084
F192321424.0
sg9
I00
sg10
I3081055
sg11
S'phillip.allen@enron.com'
p2085
sg13
I304805
sS'from_poi_to_this_person_ratio'
p2086
F0.0214123006833713
sS'squared_salary_ratio'
p2087
F0.0020281141589116353
sg16
I126027
sS'squared_bonus'
p2088
F17430625000000.0
sg18
I1407
sg19
I0
sg20
I2195
sg21
I152
sS'squared_bonus_ratio'
p2089
F0.8667545633752399
sg23
I0
sS'squared_restricted_stock_ratio'
p2090
F0.005309644849386821
sg25
I4175000
sS'expenses_ratio'
p2091
F0.0030924694755780093
sS'squared_from_this_person_to_poi_ratio'
p2092
F0.000501685902115559
sg28
I1729541
sg29
I47
sS'squared_expenses_ratio'
p2093
F9.563367457381727e-06
sg31
I65
sg32
I126027
sS'restricted_stock_ratio'
p2094
F0.07286730988163911
sg34
I201955
sS'bonus_ratio'
p2095
F0.9309965431596617
sg36
I4484442
sS'salary_ratio'
p2096
F0.04503458847276874
sS'squared_exercised_stock_options_ratio'
p2097
F1.0
sg39
I1729541
sS'from_this_person_to_poi_ratio'
p2098
F0.022398345968297727
sS'exercised_stock_options_ratio'
p2099
F1.0
ssS'SHARP VICTORIA T'
p2100
(dp2101
g3
I3136
sS'squared_salary'
p2102
F61576437316.0
sg5
I187469
sS'squared_from_poi_to_this_person_ratio'
p2103
F0.031141868512110732
sg7
I116337
sS'squared_expenses'
p2104
F13534297569.0
sg9
I00
sg10
I0
sg11
S'vicki.sharp@enron.com'
p2105
sg13
I422158
sS'from_poi_to_this_person_ratio'
p2106
F0.17647058823529413
sS'squared_salary_ratio'
p2107
F0.024775392714677227
sg16
I0
sS'squared_bonus'
p2108
F360000000000.0
sg18
I2477
sg19
I0
sg20
I136
sg21
I2401
sS'squared_bonus_ratio'
p2109
F0.1448466615811541
sg23
I0
sS'squared_restricted_stock_ratio'
p2110
F0.18591870464088273
sg25
I600000
sS'expenses_ratio'
p2111
F0.07379396655018582
sS'squared_from_this_person_to_poi_ratio'
p2112
F3.6605841316118283e-06
sg28
I494136
sg29
I24
sS'squared_expenses_ratio'
p2113
F0.005445549499209943
sg31
I6
sg32
I213063
sS'restricted_stock_ratio'
p2114
F0.43118291320608093
sg34
I248146
sS'bonus_ratio'
p2115
F0.38058725882661143
sg36
I1576511
sS'salary_ratio'
p2116
F0.15740200988131386
sS'squared_exercised_stock_options_ratio'
p2117
F0.32355287822872086
sg39
I281073
sS'from_this_person_to_poi_ratio'
p2118
F0.001913265306122449
sS'exercised_stock_options_ratio'
p2119
F0.5688170867939191
ssS'JAEDICKE ROBERT'
p2120
(dp2121
g3
I0
sS'squared_salary'
p2122
F0.0
sg5
I0
sS'squared_from_poi_to_this_person_ratio'
p2123
F0.0
sg7
I0
sS'squared_expenses'
p2124
F0.0
sg9
I00
sg10
I25000
sg11
I0
sg13
I0
sS'from_poi_to_this_person_ratio'
p2125
F0.0
sS'squared_salary_ratio'
p2126
F0.0
sg16
I44093
sS'squared_bonus'
p2127
F0.0
sg18
I0
sg19
I0
sg20
I0
sg21
I0
sS'squared_bonus_ratio'
p2128
F0.0
sg23
I108750
sS'squared_restricted_stock_ratio'
p2129
F0.01042976694744628
sg25
I0
sS'expenses_ratio'
p2130
F0.0
sS'squared_from_this_person_to_poi_ratio'
p2131
F0.0
sg28
I431750
sg29
I0
sS'squared_expenses_ratio'
p2132
F0.0
sg31
I0
sg32
I44093
sS'restricted_stock_ratio'
p2133
F0.10212623045744065
sg34
I0
sS'bonus_ratio'
p2134
F0.0
sg36
I83750
sS'salary_ratio'
p2135
F0.0
sS'squared_exercised_stock_options_ratio'
p2136
F1.0
sg39
I431750
sS'from_this_person_to_poi_ratio'
p2137
F0.0
sS'exercised_stock_options_ratio'
p2138
F1.0
ssS'WINOKUR JR. HERBERT S'
p2139
(dp2140
g3
I0
sS'squared_salary'
p2141
F0.0
sg5
I0
sS'squared_from_poi_to_this_person_ratio'
p2142
F0.0
sg7
I1413
sS'squared_expenses'
p2143
F1996569.0
sg9
I00
sg10
I25000
sg11
I0
sg13
I0
sS'from_poi_to_this_person_ratio'
p2144
F0.0
sS'squared_salary_ratio'
p2145
F0.0
sg16
I0
sS'squared_bonus'
p2146
F0.0
sg18
I0
sg19
I0
sg20
I0
sg21
I0
sS'squared_bonus_ratio'
p2147
F0.0
sg23
I108579
sS'squared_restricted_stock_ratio'
p2148
F0.0
sg25
I0
sS'expenses_ratio'
p2149
F0.016625094126506024
sS'squared_from_this_person_to_poi_ratio'
p2150
F0.0
sg28
I0
sg29
I0
sS'squared_expenses_ratio'
p2151
F0.0002763937547151851
sg31
I0
sg32
I0
sS'restricted_stock_ratio'
p2152
F0.0
sg34
I0
sS'bonus_ratio'
p2153
F0.0
sg36
I84992
sS'salary_ratio'
p2154
F0.0
sS'squared_exercised_stock_options_ratio'
p2155
F0.0
sg39
I0
sS'from_this_person_to_poi_ratio'
p2156
F0.0
sS'exercised_stock_options_ratio'
p2157
F0.0
ssS'BROWN MICHAEL'
p2158
(dp2159
g3
I1486
sS'squared_salary'
p2160
F0.0
sg5
I0
sS'squared_from_poi_to_this_person_ratio'
p2161
F0.10053539559785842
sg7
I49288
sS'squared_expenses'
p2162
F2429306944.0
sg9
I00
sg10
I0
sg11
S'michael.brown@enron.com'
p2163
sg13
I0
sS'from_poi_to_this_person_ratio'
p2164
F0.3170731707317073
sS'squared_salary_ratio'
p2165
F0.0
sg16
I0
sS'squared_bonus'
p2166
F0.0
sg18
I761
sg19
I0
sg20
I41
sg21
I0
sS'squared_bonus_ratio'
p2167
F0.0
sg23
I0
sS'squared_restricted_stock_ratio'
p2168
F0.0
sg25
I0
sS'expenses_ratio'
p2169
F1.0
sS'squared_from_this_person_to_poi_ratio'
p2170
F4.5285835134200045e-07
sg28
I0
sg29
I13
sS'squared_expenses_ratio'
p2171
F1.0
sg31
I1
sg32
I0
sS'restricted_stock_ratio'
p2172
F0.0
sg34
I0
sS'bonus_ratio'
p2173
F0.0
sg36
I49288
sS'salary_ratio'
p2174
F0.0
sS'squared_exercised_stock_options_ratio'
p2175
F0.0
sg39
I0
sS'from_this_person_to_poi_ratio'
p2176
F0.0006729475100942127
sS'exercised_stock_options_ratio'
p2177
F0.0
ssS'BADUM JAMES P'
p2178
(dp2179
g3
I0
sS'squared_salary'
p2180
F0.0
sg5
I178980
sS'squared_from_poi_to_this_person_ratio'
p2181
F0.0
sg7
I3486
sS'squared_expenses'
p2182
F12152196.0
sg9
I00
sg10
I0
sg11
I0
sg13
I0
sS'from_poi_to_this_person_ratio'
p2183
F0.0
sS'squared_salary_ratio'
p2184
F0.0
sg16
I0
sS'squared_bonus'
p2185
F0.0
sg18
I0
sg19
I0
sg20
I0
sg21
I0
sS'squared_bonus_ratio'
p2186
F0.0
sg23
I0
sS'squared_restricted_stock_ratio'
p2187
F0.0
sg25
I0
sS'expenses_ratio'
p2188
F0.019104929137483146
sS'squared_from_this_person_to_poi_ratio'
p2189
F0.0
sg28
I257817
sg29
I0
sS'squared_expenses_ratio'
p2190
F0.0003649983173482525
sg31
I0
sg32
I0
sS'restricted_stock_ratio'
p2191
F0.0
sg34
I0
sS'bonus_ratio'
p2192
F0.0
sg36
I182466
sS'salary_ratio'
p2193
F0.0
sS'squared_exercised_stock_options_ratio'
p2194
F1.0
sg39
I257817
sS'from_this_person_to_poi_ratio'
p2195
F0.0
sS'exercised_stock_options_ratio'
p2196
F1.0
ssS'HUGHES JAMES A'
p2197
(dp2198
g3
I719
sS'squared_salary'
p2199
F0.0
sg5
I0
sS'squared_from_poi_to_this_person_ratio'
p2200
F1.0596885813148786
sg7
I0
sS'squared_expenses'
p2201
F0.0
sg9
I00
sg10
I0
sg11
S'james.hughes@enron.com'
p2202
sg13
I0
sS'from_poi_to_this_person_ratio'
p2203
F1.0294117647058822
sS'squared_salary_ratio'
p2204
F0.0
sg16
I0
sS'squared_bonus'
p2205
F0.0
sg18
I589
sg19
I0
sg20
I34
sg21
I0
sS'squared_bonus_ratio'
p2206
F0.0
sg23
I0
sS'squared_restricted_stock_ratio'
p2207
F0.10559591341675754
sg25
I0
sS'expenses_ratio'
p2208
F0.0
sS'squared_from_this_person_to_poi_ratio'
p2209
F4.835954743201132e-05
sg28
I1118394
sg29
I35
sS'squared_expenses_ratio'
p2210
F0.0
sg31
I5
sg32
I363428
sS'restricted_stock_ratio'
p2211
F0.3249552483293008
sg34
I0
sS'bonus_ratio'
p2212
F0.0
sg36
I0
sS'salary_ratio'
p2213
F0.0
sS'squared_exercised_stock_options_ratio'
p2214
F0.455685416758156
sg39
I754966
sS'from_this_person_to_poi_ratio'
p2215
F0.006954102920723227
sS'exercised_stock_options_ratio'
p2216
F0.6750447516706992
ssS'REYNOLDS LAWRENCE'
p2217
(dp2218
g3
I0
sS'squared_salary'
p2219
F5836807201.0
sg5
I51365
sS'squared_from_poi_to_this_person_ratio'
p2220
F0.0
sg7
I8409
sS'squared_expenses'
p2221
F70711281.0
sg9
I00
sg10
I200000
sg11
I0
sg13
I156250
sS'from_poi_to_this_person_ratio'
p2222
F0.0
sS'squared_salary_ratio'
p2223
F0.037509077085607335
sg16
I140264
sS'squared_bonus'
p2224
F10000000000.0
sg18
I0
sg19
I0
sg20
I0
sg21
I202052
sS'squared_bonus_ratio'
p2225
F0.06426300508809171
sg23
I0
sS'squared_restricted_stock_ratio'
p2226
F0.002277523066957109
sg25
I100000
sS'expenses_ratio'
p2227
F0.021316940237023893
sS'squared_from_this_person_to_poi_ratio'
p2228
F0.0
sg28
I4221891
sg29
I0
sS'squared_expenses_ratio'
p2229
F0.0004544119410688483
sg31
I0
sg32
I201483
sS'restricted_stock_ratio'
p2230
F0.047723401670009956
sg34
I76399
sS'bonus_ratio'
p2231
F0.2535014893212498
sg36
I394475
sS'salary_ratio'
p2232
F0.1936726028265416
sS'squared_exercised_stock_options_ratio'
p2233
F0.9712095121399018
sg39
I4160672
sS'from_this_person_to_poi_ratio'
p2234
F0.0
sS'exercised_stock_options_ratio'
p2235
F0.9854996256416853
ssS'DIMICHELE RICHARD G'
p2236
(dp2237
g3
I0
sS'squared_salary'
p2238
F69057532944.0
sg5
I0
sS'squared_from_poi_to_this_person_ratio'
p2239
F0.0
sg7
I35812
sS'squared_expenses'
p2240
F1282499344.0
sg9
I00
sg10
I0
sg11
S'richard.dimichele@enron.com'
p2241
sg13
I694862
sS'from_poi_to_this_person_ratio'
p2242
F0.0
sS'squared_salary_ratio'
p2243
F0.012313805165769862
sg16
I0
sS'squared_bonus'
p2244
F1000000000000.0
sg18
I0
sg19
I0
sg20
I0
sg21
I374689
sS'squared_bonus_ratio'
p2245
F0.17831226574160056
sg23
I0
sS'squared_restricted_stock_ratio'
p2246
F0.00022956841138659323
sg25
I1000000
sS'expenses_ratio'
p2247
F0.015122346505776025
sS'squared_from_this_person_to_poi_ratio'
p2248
F0.0
sg28
I8317782
sg29
I0
sS'squared_expenses_ratio'
p2249
F0.00022868536384075636
sg31
I0
sg32
I126027
sS'restricted_stock_ratio'
p2250
F0.015151515151515152
sg34
I262788
sS'bonus_ratio'
p2251
F0.42227037042823706
sg36
I2368151
sS'salary_ratio'
p2252
F0.11096758610409556
sS'squared_exercised_stock_options_ratio'
p2253
F0.9699265381083563
sg39
I8191755
sS'from_this_person_to_poi_ratio'
p2254
F0.0
sS'exercised_stock_options_ratio'
p2255
F0.9848484848484849
ssS'BHATNAGAR SANJAY'
p2256
(dp2257
g3
I523
sS'squared_salary'
p2258
F0.0
sg5
I0
sS'squared_from_poi_to_this_person_ratio'
p2259
F0.0
sg7
I137864
sS'squared_expenses'
p2260
F19006482496.0
sg9
I00
sg10
I0
sg11
S'sanjay.bhatnagar@enron.com'
p2261
sg13
I0
sS'from_poi_to_this_person_ratio'
p2262
F0.0
sS'squared_salary_ratio'
p2263
F0.0
sg16
I2604490
sS'squared_bonus'
p2264
F0.0
sg18
I463
sg19
I0
sg20
I29
sg21
I0
sS'squared_bonus_ratio'
p2265
F0.0
sg23
I0
sS'squared_restricted_stock_ratio'
p2266
F0.028394542348949014
sg25
I0
sS'expenses_ratio'
p2267
F1.0
sS'squared_from_this_person_to_poi_ratio'
p2268
F3.6559194820293274e-06
sS'total_stock_value'
p2269
I15456290
sg29
I0
sS'squared_expenses_ratio'
p2270
F1.0
sg31
I1
sg32
I2604490
sS'restricted_stock_ratio'
p2271
F0.1685068020851058
sg34
I0
sS'bonus_ratio'
p2272
F0.0
sg36
I137864
sS'salary_ratio'
p2273
F0.0
sS'squared_exercised_stock_options_ratio'
p2274
F1.0
sg39
I15456290
sS'from_this_person_to_poi_ratio'
p2275
F0.0019120458891013384
sS'exercised_stock_options_ratio'
p2276
F1.0
ssS'CARTER REBECCA C'
p2277
(dp2278
g3
I312
sS'squared_salary'
p2279
F68543952481.0
sg5
I0
sS'squared_from_poi_to_this_person_ratio'
p2280
F3.7377777777777776
sg7
I0
sS'squared_expenses'
p2281
F0.0
sg9
I00
sg10
I159792
sg11
S'rebecca.carter@enron.com'
p2282
sg13
I75000
sS'from_poi_to_this_person_ratio'
p2283
F1.9333333333333333
sS'squared_salary_ratio'
p2284
F0.300551370809522
sg16
I307301
sS'squared_bonus'
p2285
F90000000000.0
sg18
I196
sg19
I0
sg20
I15
sg21
I540
sS'squared_bonus_ratio'
p2286
F0.3946318003817329
sg23
I0
sS'squared_restricted_stock_ratio'
p2287
F0.0
sg25
I300000
sS'expenses_ratio'
p2288
F0.0
sS'squared_from_this_person_to_poi_ratio'
p2289
F0.0005033694937541091
sg28
I0
sg29
I29
sS'squared_expenses_ratio'
p2290
F0.0
sg31
I7
sg32
I307301
sS'restricted_stock_ratio'
p2291
F0.0
sg34
I261809
sS'bonus_ratio'
p2292
F0.6281972623163308
sg36
I477557
sS'salary_ratio'
p2293
F0.5482256568325875
sS'squared_exercised_stock_options_ratio'
p2294
F0.0
sg39
I0
sS'from_this_person_to_poi_ratio'
p2295
F0.022435897435897436
sS'exercised_stock_options_ratio'
p2296
F0.0
ssS'BUCHANAN HAROLD G'
p2297
(dp2298
g3
I1088
sS'squared_salary'
p2299
F61512432289.0
sg5
I0
sS'squared_from_poi_to_this_person_ratio'
p2300
F0.0
sg7
I600
sS'squared_expenses'
p2301
F360000.0
sg9
I00
sg10
I0
sg11
S'john.buchanan@enron.com'
p2302
sg13
I304805
sS'from_poi_to_this_person_ratio'
p2303
F0.0
sS'squared_salary_ratio'
p2304
F0.05530404440904345
sg16
I0
sS'squared_bonus'
p2305
F250000000000.0
sg18
I23
sg19
I0
sg20
I125
sg21
I1215
sS'squared_bonus_ratio'
p2306
F0.2247677516197536
sg23
I0
sS'squared_restricted_stock_ratio'
p2307
F0.034721911704957954
sg25
I500000
sS'expenses_ratio'
p2308
F0.000568916129436005
sS'squared_from_this_person_to_poi_ratio'
p2309
F0.0
sg28
I1014505
sg29
I0
sS'squared_expenses_ratio'
p2310
F3.236655623324452e-07
sg31
I0
sg32
I189041
sS'restricted_stock_ratio'
p2311
F0.18633816491786634
sg34
I248017
sS'bonus_ratio'
p2312
F0.47409677453000415
sg36
I1054637
sS'salary_ratio'
p2313
F0.23516811945721608
sS'squared_exercised_stock_options_ratio'
p2314
F0.6620455818692252
sg39
I825464
sS'from_this_person_to_poi_ratio'
p2315
F0.0
sS'exercised_stock_options_ratio'
p2316
F0.8136618350821336
ssS'YEAP SOON'
p2317
(dp2318
g3
I0
sS'squared_salary'
p2319
F0.0
sg5
I0
sS'squared_from_poi_to_this_person_ratio'
p2320
F0.0
sg7
I55097
sS'squared_expenses'
p2321
F3035679409.0
sg9
I00
sg10
I0
sg11
I0
sg13
I0
sS'from_poi_to_this_person_ratio'
p2322
F0.0
sS'squared_salary_ratio'
p2323
F0.0
sg16
I0
sS'squared_bonus'
p2324
F0.0
sg18
I0
sg19
I0
sg20
I0
sg21
I0
sS'squared_bonus_ratio'
p2325
F0.0
sg23
I0
sS'squared_restricted_stock_ratio'
p2326
F0.0
sg25
I0
sS'expenses_ratio'
p2327
F1.0
sS'squared_from_this_person_to_poi_ratio'
p2328
F0.0
sg28
I192758
sg29
I0
sS'squared_expenses_ratio'
p2329
F1.0
sg31
I0
sg32
I0
sS'restricted_stock_ratio'
p2330
F0.0
sg34
I0
sS'bonus_ratio'
p2331
F0.0
sg36
I55097
sS'salary_ratio'
p2332
F0.0
sS'squared_exercised_stock_options_ratio'
p2333
F1.0
sg39
I192758
sS'from_this_person_to_poi_ratio'
p2334
F0.0
sS'exercised_stock_options_ratio'
p2335
F1.0
ssS'MURRAY JULIA H'
p2336
(dp2337
g3
I2192
sS'squared_salary'
p2338
F52571152656.0
sg5
I0
sS'squared_from_poi_to_this_person_ratio'
p2339
F0.05975308641975308
sg7
I57580
sS'squared_expenses'
p2340
F3315456400.0
sg9
I00
sg10
I0
sg11
S'julia.murray@enron.com'
p2341
sg13
I125000
sS'from_poi_to_this_person_ratio'
p2342
F0.24444444444444444
sS'squared_salary_ratio'
p2343
F0.07969442574683701
sg16
I0
sS'squared_bonus'
p2344
F160000000000.0
sg18
I395
sg19
I0
sg20
I45
sg21
I330
sS'squared_bonus_ratio'
p2345
F0.2425495252678015
sg23
I0
sS'squared_restricted_stock_ratio'
p2346
F0.10870220952753341
sg25
I400000
sS'expenses_ratio'
p2347
F0.07089439222648776
sS'squared_from_this_person_to_poi_ratio'
p2348
F8.324897437263573e-07
sg28
I597461
sg29
I11
sS'squared_expenses_ratio'
p2349
F0.0050260148491630885
sg31
I2
sg32
I196983
sS'restricted_stock_ratio'
p2350
F0.3297001812670618
sg34
I229284
sS'bonus_ratio'
p2351
F0.4924931728133919
sg36
I812194
sS'salary_ratio'
p2352
F0.2823020115883644
sS'squared_exercised_stock_options_ratio'
p2353
F0.4493018469934098
sg39
I400478
sS'from_this_person_to_poi_ratio'
p2354
F0.0009124087591240876
sS'exercised_stock_options_ratio'
p2355
F0.6702998187329382
ssS'GARLAND C KEVIN'
p2356
(dp2357
g3
I209
sS'squared_salary'
p2358
F53798946916.0
sg5
I0
sS'squared_from_poi_to_this_person_ratio'
p2359
F0.051652892561983466
sg7
I48405
sS'squared_expenses'
p2360
F2343044025.0
sg9
I00
sg10
I0
sg11
S'kevin.garland@enron.com'
p2361
sg13
I375304
sS'from_poi_to_this_person_ratio'
p2362
F0.22727272727272727
sS'squared_salary_ratio'
p2363
F0.021924523595006178
sg16
I0
sS'squared_bonus'
p2364
F722500000000.0
sg18
I178
sg19
I0
sg20
I44
sg21
I60814
sS'squared_bonus_ratio'
p2365
F0.2944382595838684
sg23
I0
sS'squared_restricted_stock_ratio'
p2366
F0.08411464702061085
sg25
I850000
sS'expenses_ratio'
p2367
F0.03090070725944784
sS'squared_from_this_person_to_poi_ratio'
p2368
F0.016689178361301255
sg28
I896153
sg29
I10
sS'squared_expenses_ratio'
p2369
F0.0009548537091340925
sg31
I27
sg32
I259907
sS'restricted_stock_ratio'
p2370
F0.2900252523843585
sg34
I231946
sS'bonus_ratio'
p2371
F0.5426216541789208
sg36
I1566469
sS'salary_ratio'
p2372
F0.14806932023551056
sS'squared_exercised_stock_options_ratio'
p2373
F0.5040641422518939
sg39
I636246
sS'from_this_person_to_poi_ratio'
p2374
F0.1291866028708134
sS'exercised_stock_options_ratio'
p2375
F0.7099747476156415
ssS'DODSON KEITH'
p2376
(dp2377
g3
I176
sS'squared_salary'
p2378
F48842326009.0
sg5
I0
sS'squared_from_poi_to_this_person_ratio'
p2379
F0.5102040816326531
sg7
I28164
sS'squared_expenses'
p2380
F793210896.0
sg9
I00
sg10
I0
sg11
S'keith.dodson@enron.com'
p2381
sg13
I0
sS'from_poi_to_this_person_ratio'
p2382
F0.7142857142857143
sS'squared_salary_ratio'
p2383
F0.47715177342772763
sg16
I0
sS'squared_bonus'
p2384
F4900000000.0
sg18
I114
sg19
I0
sg20
I14
sg21
I774
sS'squared_bonus_ratio'
p2385
F0.04786921264489006
sg23
I0
sS'squared_restricted_stock_ratio'
p2386
F0.0
sg25
I70000
sS'expenses_ratio'
p2387
F0.08802873029714854
sS'squared_from_this_person_to_poi_ratio'
p2388
F0.000290547520661157
sg28
I0
sg29
I10
sS'squared_expenses_ratio'
p2389
F0.007749057357728117
sg31
I3
sg32
I0
sS'restricted_stock_ratio'
p2390
F0.0
sg34
I221003
sS'bonus_ratio'
p2391
F0.21879033946883958
sg36
I319941
sS'salary_ratio'
p2392
F0.6907617341947422
sS'squared_exercised_stock_options_ratio'
p2393
F0.0
sg39
I0
sS'from_this_person_to_poi_ratio'
p2394
F0.017045454545454544
sS'exercised_stock_options_ratio'
p2395
F0.0
ssS'YEAGER F SCOTT'
p2396
(dp2397
g3
I0
sS'squared_salary'
p2398
F25091510409.0
sg5
I0
sS'squared_from_poi_to_this_person_ratio'
p2399
F0.0
sg7
I53947
sS'squared_expenses'
p2400
F2910278809.0
sg9
I01
sg10
I0
sg11
S'scott.yeager@enron.com'
p2401
sg13
I0
sS'from_poi_to_this_person_ratio'
p2402
F0.0
sS'squared_salary_ratio'
p2403
F0.19328505741468566
sg16
I0
sS'squared_bonus'
p2404
F0.0
sg18
I0
sg19
I0
sg20
I0
sg21
I147950
sS'squared_bonus_ratio'
p2405
F0.0
sg23
I0
sS'squared_restricted_stock_ratio'
p2406
F0.09054497831560226
sg25
I0
sS'expenses_ratio'
p2407
F0.14972800444074383
sS'squared_from_this_person_to_poi_ratio'
p2408
F0.0
sg28
I11884758
sg29
I0
sS'squared_expenses_ratio'
p2409
F0.022418475313807404
sg31
I0
sg32
I3576206
sS'restricted_stock_ratio'
p2410
F0.30090692633371247
sg34
I158403
sS'bonus_ratio'
p2411
F0.0
sg36
I360300
sS'salary_ratio'
p2412
F0.4396419650291424
sS'squared_exercised_stock_options_ratio'
p2413
F0.4887311256481773
sg39
I8308552
sS'from_this_person_to_poi_ratio'
p2414
F0.0
sS'exercised_stock_options_ratio'
p2415
F0.6990930736662875
ssS'HIRKO JOSEPH'
p2416
(dp2417
g3
I0
sS'squared_salary'
p2418
F0.0
sg5
I10259
sS'squared_from_poi_to_this_person_ratio'
p2419
F0.0
sg7
I77978
sS'squared_expenses'
p2420
F6080568484.0
sg9
I01
sg10
I0
sg11
S'joe.hirko@enron.com'
p2421
sg13
I0
sS'from_poi_to_this_person_ratio'
p2422
F0.0
sS'squared_salary_ratio'
p2423
F0.0
sg16
I0
sS'squared_bonus'
p2424
F0.0
sg18
I0
sg19
I0
sg20
I0
sg21
I2856
sS'squared_bonus_ratio'
p2425
F0.0
sg23
I0
sS'squared_restricted_stock_ratio'
p2426
F0.0
sg25
I0
sS'expenses_ratio'
p2427
F0.8560262588782892
sS'squared_from_this_person_to_poi_ratio'
p2428
F0.0
sg28
I30766064
sg29
I0
sS'squared_expenses_ratio'
p2429
F0.7327809558891598
sg31
I0
sg32
I0
sS'restricted_stock_ratio'
p2430
F0.0
sg34
I0
sS'bonus_ratio'
p2431
F0.0
sg36
I91093
sS'salary_ratio'
p2432
F0.0
sS'squared_exercised_stock_options_ratio'
p2433
F1.0
sg39
I30766064
sS'from_this_person_to_poi_ratio'
p2434
F0.0
sS'exercised_stock_options_ratio'
p2435
F1.0
ssS'DIETRICH JANET R'
p2436
(dp2437
g3
I2572
sS'squared_salary'
p2438
F62550010000.0
sg5
I0
sS'squared_from_poi_to_this_person_ratio'
p2439
F23.43789367598891
sg7
I3475
sS'squared_expenses'
p2440
F12075625.0
sg9
I00
sg10
I0
sg11
S'janet.dietrich@enron.com'
p2441
sg13
I556416
sS'from_poi_to_this_person_ratio'
p2442
F4.841269841269841
sS'squared_salary_ratio'
p2443
F0.03144150829736537
sg16
I0
sS'squared_bonus'
p2444
F360000000000.0
sg18
I1902
sg19
I0
sg20
I63
sg21
I473
sS'squared_bonus_ratio'
p2445
F0.1809582922057332
sg23
I0
sS'squared_restricted_stock_ratio'
p2446
F0.02853713713794529
sg25
I600000
sS'expenses_ratio'
p2447
F0.0024637282482927606
sS'squared_from_this_person_to_poi_ratio'
p2448
F2.9628805487496647e-05
sg28
I1865087
sg29
I305
sS'squared_expenses_ratio'
p2449
F6.069956881435715e-06
sg31
I14
sg32
I315068
sS'restricted_stock_ratio'
p2450
F0.16892938506353858
sg34
I250100
sS'bonus_ratio'
p2451
F0.4253919277627788
sg36
I1410464
sS'salary_ratio'
p2452
F0.1773175352224516
sS'squared_exercised_stock_options_ratio'
p2453
F0.690678367010868
sg39
I1550019
sS'from_this_person_to_poi_ratio'
p2454
F0.005443234836702955
sS'exercised_stock_options_ratio'
p2455
F0.8310706149364614
ssS'DERRICK JR. JAMES V'
p2456
(dp2457
g3
I2181
sS'squared_salary'
p2458
F242433140625.0
sg5
I0
sS'squared_from_poi_to_this_person_ratio'
p2459
F0.004957151380704627
sg7
I51124
sS'squared_expenses'
p2460
F2613663376.0
sg9
I00
sg10
I1284000
sg11
S'james.derrick@enron.com'
p2461
sg13
I484000
sS'from_poi_to_this_person_ratio'
p2462
F0.0704070407040704
sS'squared_salary_ratio'
p2463
F0.7985805745593147
sg16
I1787380
sS'squared_bonus'
p2464
F640000000000.0
sg18
I1401
sg19
I0
sg20
I909
sg21
I7482
sS'squared_bonus_ratio'
p2465
F2.108175336096178
sg23
I0
sS'squared_restricted_stock_ratio'
p2466
F0.040956630822064646
sg25
I800000
sS'expenses_ratio'
p2467
F0.09278722859771935
sS'squared_from_this_person_to_poi_ratio'
p2468
F8.409083407806278e-05
sg28
I8831913
sg29
I64
sS'squared_expenses_ratio'
p2469
F0.008609469790845427
sg31
I20
sg32
I1787380
sS'restricted_stock_ratio'
p2470
F0.20237744642638578
sg34
I492375
sS'bonus_ratio'
p2471
F1.4519556935720106
sg36
I550981
sS'salary_ratio'
p2472
F0.8936333557781484
sS'squared_exercised_stock_options_ratio'
p2473
F1.0
sg39
I8831913
sS'from_this_person_to_poi_ratio'
p2474
F0.009170105456212746
sS'exercised_stock_options_ratio'
p2475
F1.0
ssS'FREVERT MARK A'
p2476
(dp2477
g3
I3275
sS'squared_salary'
p2478
F1125576708624.0
sg5
I6426990
sS'squared_from_poi_to_this_person_ratio'
p2479
F132.79818594104307
sg7
I86987
sS'squared_expenses'
p2480
F7566738169.0
sg9
I00
sg10
I3367011
sg11
S'mark.frevert@enron.com'
p2481
sg13
I1617011
sS'from_poi_to_this_person_ratio'
p2482
F11.523809523809524
sS'squared_salary_ratio'
p2483
F0.0037815471105369525
sg16
I0
sS'squared_bonus'
p2484
F4000000000000.0
sg18
I2979
sg19
I2000000
sg20
I21
sg21
I7427621
sS'squared_bonus_ratio'
p2485
F0.013438611803401066
sg23
I0
sS'squared_restricted_stock_ratio'
p2486
F0.08205917036404697
sg25
I2000000
sS'expenses_ratio'
p2487
F0.005041985146526336
sS'squared_from_this_person_to_poi_ratio'
p2488
F3.356447759454577e-06
sg28
I14622185
sg29
I242
sS'squared_expenses_ratio'
p2489
F2.5421614217792197e-05
sg31
I6
sg32
I4188667
sS'restricted_stock_ratio'
p2490
F0.28645971857147207
sg34
I1060932
sS'bonus_ratio'
p2491
F0.1159250266482655
sg36
I17252530
sS'salary_ratio'
p2492
F0.06149428518599881
sS'squared_exercised_stock_options_ratio'
p2493
F0.509139733221103
sg39
I10433518
sS'from_this_person_to_poi_ratio'
p2494
F0.00183206106870229
sS'exercised_stock_options_ratio'
p2495
F0.713540281428528
ssS'PAI LOU L'
p2496
(dp2497
g3
I0
sS'squared_salary'
p2498
F68580610641.0
sg5
I0
sS'squared_from_poi_to_this_person_ratio'
p2499
F0.0
sg7
I32047
sS'squared_expenses'
p2500
F1027010209.0
sg9
I00
sg10
I0
sg11
S'lou.pai@enron.com'
p2501
sg13
I0
sS'from_poi_to_this_person_ratio'
p2502
F0.0
sS'squared_salary_ratio'
p2503
F0.007029927779076348
sg16
I0
sS'squared_bonus'
p2504
F1000000000000.0
sg18
I0
sg19
I0
sg20
I0
sg21
I1829457
sS'squared_bonus_ratio'
p2505
F0.10250605401978734
sg23
I0
sS'squared_restricted_stock_ratio'
p2506
F0.12597724527367007
sg25
I1000000
sS'expenses_ratio'
p2507
F0.01026034911504609
sS'squared_from_this_person_to_poi_ratio'
p2508
F0.0
sg28
I23817930
sg29
I0
sS'squared_expenses_ratio'
p2509
F0.00010527476396262707
sg31
I0
sg32
I8453763
sS'restricted_stock_ratio'
p2510
F0.35493273344912846
sg34
I261879
sS'bonus_ratio'
p2511
F0.3201656665224854
sg36
I3123383
sS'salary_ratio'
p2512
F0.08384466458324195
sS'squared_exercised_stock_options_ratio'
p2513
F0.41611177837541313
sg39
I15364167
sS'from_this_person_to_poi_ratio'
p2514
F0.0
sS'exercised_stock_options_ratio'
p2515
F0.6450672665508715
ssS'BAY FRANKLIN R'
p2516
(dp2517
g3
I0
sS'squared_salary'
p2518
F57442188241.0
sg5
I260455
sS'squared_from_poi_to_this_person_ratio'
p2519
F0.0
sg7
I129142
sS'squared_expenses'
p2520
F16677656164.0
sg9
I00
sg10
I201641
sg11
S'frank.bay@enron.com'
p2521
sg13
I0
sS'from_poi_to_this_person_ratio'
p2522
F0.0
sS'squared_salary_ratio'
p2523
F0.08384733490409849
sg16
I82782
sS'squared_bonus'
p2524
F160000000000.0
sg18
I0
sg19
I0
sg20
I0
sg21
I69
sS'squared_bonus_ratio'
p2525
F0.23354913862909288
sg23
I0
sS'squared_restricted_stock_ratio'
p2526
F5.3532450094651765
sg25
I400000
sS'expenses_ratio'
p2527
F0.15602588389940267
sS'squared_from_this_person_to_poi_ratio'
p2528
F0.0
sg28
I63014
sg29
I0
sS'squared_expenses_ratio'
p2529
F0.02434407644658988
sg31
I0
sg32
I145796
sS'restricted_stock_ratio'
p2530
F2.3137080648744726
sg34
I239671
sS'bonus_ratio'
p2531
F0.48326921961686414
sg36
I827696
sS'salary_ratio'
p2532
F0.2895640428369836
sS'squared_exercised_stock_options_ratio'
p2533
F0.0
sg39
I0
sS'from_this_person_to_poi_ratio'
p2534
F0.0
sS'exercised_stock_options_ratio'
p2535
F0.0
ssS'HAYSLETT RODERICK J'
p2536
(dp2537
g3
I2649
sS'squared_salary'
p2538
F0.0
sg5
I0
sS'squared_from_poi_to_this_person_ratio'
p2539
F0.0010881914790609752
sg7
I0
sS'squared_expenses'
p2540
F0.0
sg9
I00
sg10
I0
sg11
S'rod.hayslett@enron.com'
p2541
sg13
I0
sS'from_poi_to_this_person_ratio'
p2542
F0.03298774740810556
sS'squared_salary_ratio'
p2543
F0.0
sg16
I0
sS'squared_bonus'
p2544
F0.0
sg18
I571
sg19
I0
sg20
I1061
sg21
I0
sS'squared_bonus_ratio'
p2545
F0.0
sg23
I0
sS'squared_restricted_stock_ratio'
p2546
F1.0
sg25
I0
sS'expenses_ratio'
p2547
F0.0
sS'squared_from_this_person_to_poi_ratio'
p2548
F0.00020578005389898337
sg28
I346663
sg29
I35
sS'squared_expenses_ratio'
p2549
F0.0
sg31
I38
sg32
I346663
sS'restricted_stock_ratio'
p2550
F1.0
sg34
I0
sS'bonus_ratio'
p2551
F0.0
sg36
I0
sS'salary_ratio'
p2552
F0.0
sS'squared_exercised_stock_options_ratio'
p2553
F0.0
sg39
I0
sS'from_this_person_to_poi_ratio'
p2554
F0.014345035862589657
sS'exercised_stock_options_ratio'
p2555
F0.0
ssS'FUGH JOHN L'
p2556
(dp2557
g3
I0
sS'squared_salary'
p2558
F0.0
sg5
I50591
sS'squared_from_poi_to_this_person_ratio'
p2559
F0.0
sg7
I0
sS'squared_expenses'
p2560
F0.0
sg9
I00
sg10
I0
sg11
I0
sg13
I0
sS'from_poi_to_this_person_ratio'
p2561
F0.0
sS'squared_salary_ratio'
p2562
F0.0
sg16
I0
sS'squared_bonus'
p2563
F0.0
sg18
I0
sg19
I0
sg20
I0
sg21
I0
sS'squared_bonus_ratio'
p2564
F0.0
sg23
I0
sS'squared_restricted_stock_ratio'
p2565
F0.0
sg25
I0
sS'expenses_ratio'
p2566
F0.0
sS'squared_from_this_person_to_poi_ratio'
p2567
F0.0
sg28
I176378
sg29
I0
sS'squared_expenses_ratio'
p2568
F0.0
sg31
I0
sg32
I0
sS'restricted_stock_ratio'
p2569
F0.0
sg34
I0
sS'bonus_ratio'
p2570
F0.0
sg36
I50591
sS'salary_ratio'
p2571
F0.0
sS'squared_exercised_stock_options_ratio'
p2572
F1.0
sg39
I176378
sS'from_this_person_to_poi_ratio'
p2573
F0.0
sS'exercised_stock_options_ratio'
p2574
F1.0
ssS'FALLON JAMES B'
p2575
(dp2576
g3
I1755
sS'squared_salary'
p2577
F92773849744.0
sg5
I0
sS'squared_from_poi_to_this_person_ratio'
p2578
F0.31360000000000005
sg7
I95924
sS'squared_expenses'
p2579
F9201413776.0
sg9
I00
sg10
I0
sg11
S'jim.fallon@enron.com'
p2580
sg13
I374347
sS'from_poi_to_this_person_ratio'
p2581
F0.56
sS'squared_salary_ratio'
p2582
F0.0068642681284074945
sg16
I0
sS'squared_bonus'
p2583
F6250000000000.0
sg18
I1604
sg19
I0
sg20
I75
sg21
I401481
sS'squared_bonus_ratio'
p2584
F0.4624328506462721
sg23
I0
sS'squared_restricted_stock_ratio'
p2585
F0.35625533686479827
sg25
I2500000
sS'expenses_ratio'
p2586
F0.026092254796890386
sS'squared_from_this_person_to_poi_ratio'
p2587
F0.00044447691171337896
sg28
I2332399
sg29
I42
sS'squared_expenses_ratio'
p2588
F0.0006808057603858494
sg31
I37
sg32
I1392142
sS'restricted_stock_ratio'
p2589
F0.5968712900322801
sg34
I304588
sS'bonus_ratio'
p2590
F0.6800241544579664
sg36
I3676340
sS'salary_ratio'
p2591
F0.08285087886321722
sS'squared_exercised_stock_options_ratio'
p2592
F0.16251275680023805
sg39
I940257
sS'from_this_person_to_poi_ratio'
p2593
F0.021082621082621083
sS'exercised_stock_options_ratio'
p2594
F0.40312870996771993
ssS'KOENIG MARK E'
p2595
(dp2596
g3
I2374
sS'squared_salary'
p2597
F96066522916.0
sg5
I0
sS'squared_from_poi_to_this_person_ratio'
p2598
F0.7549045955388336
sg7
I127017
sS'squared_expenses'
p2599
F16133318289.0
sg9
I01
sg10
I0
sg11
S'mark.koenig@enron.com'
p2600
sg13
I300000
sS'from_poi_to_this_person_ratio'
p2601
F0.8688524590163934
sS'squared_salary_ratio'
p2602
F0.03812306673298024
sg16
I0
sS'squared_bonus'
p2603
F490000000000.0
sg18
I2271
sg19
I0
sg20
I61
sg21
I150458
sS'squared_bonus_ratio'
p2604
F0.1944517416904353
sg23
I0
sS'squared_restricted_stock_ratio'
p2605
F0.42269112290587063
sg25
I700000
sS'expenses_ratio'
p2606
F0.08001469049483408
sS'squared_from_this_person_to_poi_ratio'
p2607
F3.992280880558764e-05
sg28
I1920055
sg29
I53
sS'squared_expenses_ratio'
p2608
F0.0064023506949840905
sg31
I15
sg32
I1248318
sS'restricted_stock_ratio'
p2609
F0.6501470009973672
sg34
I309946
sS'bonus_ratio'
p2610
F0.44096682606567505
sg36
I1587421
sS'salary_ratio'
p2611
F0.19525129124535962
sS'squared_exercised_stock_options_ratio'
p2612
F0.12239712091113614
sg39
I671737
sS'from_this_person_to_poi_ratio'
p2613
F0.006318449873631003
sS'exercised_stock_options_ratio'
p2614
F0.3498529990026327
ssS'SAVAGE FRANK'
p2615
(dp2616
g3
I0
sS'squared_salary'
p2617
F0.0
sg5
I0
sS'squared_from_poi_to_this_person_ratio'
p2618
F0.0
sg7
I0
sS'squared_expenses'
p2619
F0.0
sg9
I00
sg10
I121284
sg11
I0
sg13
I0
sS'from_poi_to_this_person_ratio'
p2620
F0.0
sS'squared_salary_ratio'
p2621
F0.0
sg16
I0
sS'squared_bonus'
p2622
F0.0
sg18
I0
sg19
I0
sg20
I0
sg21
I0
sS'squared_bonus_ratio'
p2623
F0.0
sg23
I125034
sS'squared_restricted_stock_ratio'
p2624
F0.0
sg25
I0
sS'expenses_ratio'
p2625
F0.0
sS'squared_from_this_person_to_poi_ratio'
p2626
F0.0
sg28
I0
sg29
I0
sS'squared_expenses_ratio'
p2627
F0.0
sg31
I0
sg32
I0
sS'restricted_stock_ratio'
p2628
F0.0
sg34
I0
sS'bonus_ratio'
p2629
F0.0
sg36
I3750
sS'salary_ratio'
p2630
F0.0
sS'squared_exercised_stock_options_ratio'
p2631
F0.0
sg39
I0
sS'from_this_person_to_poi_ratio'
p2632
F0.0
sS'exercised_stock_options_ratio'
p2633
F0.0
ssS'IZZO LAWRENCE L'
p2634
(dp2635
g3
I496
sS'squared_salary'
p2636
F7271655076.0
sg5
I0
sS'squared_from_poi_to_this_person_ratio'
p2637
F2.1717451523545703
sg7
I28093
sS'squared_expenses'
p2638
F789216649.0
sg9
I00
sg10
I0
sg11
S'larry.izzo@enron.com'
p2639
sg13
I312500
sS'from_poi_to_this_person_ratio'
p2640
F1.4736842105263157
sS'squared_salary_ratio'
p2641
F0.001855581932286983
sg16
I0
sS'squared_bonus'
p2642
F0.0
sg18
I437
sg19
I0
sg20
I19
sg21
I1553729
sS'squared_bonus_ratio'
p2643
F0.0
sg23
I0
sS'squared_restricted_stock_ratio'
p2644
F0.3943539082644307
sg25
I0
sS'expenses_ratio'
p2645
F0.014191279432773152
sS'squared_from_this_person_to_poi_ratio'
p2646
F0.00010161940686784599
sg28
I5819980
sg29
I28
sS'squared_expenses_ratio'
p2647
F0.00020139241193905028
sg31
I5
sg32
I3654808
sS'restricted_stock_ratio'
p2648
F0.6279760411547806
sg34
I85274
sS'bonus_ratio'
p2649
F0.0
sg36
I1979596
sS'salary_ratio'
p2650
F0.043076466107225916
sS'squared_exercised_stock_options_ratio'
p2651
F0.1384018259548695
sg39
I2165172
sS'from_this_person_to_poi_ratio'
p2652
F0.010080645161290322
sS'exercised_stock_options_ratio'
p2653
F0.3720239588452194
ssS'TILNEY ELIZABETH A'
p2654
(dp2655
g3
I460
sS'squared_salary'
p2656
F61176086244.0
sg5
I0
sS'squared_from_poi_to_this_person_ratio'
p2657
F0.27700831024930744
sg7
I0
sS'squared_expenses'
p2658
F0.0
sg9
I00
sg10
I575000
sg11
S'elizabeth.tilney@enron.com'
p2659
sg13
I275000
sS'from_poi_to_this_person_ratio'
p2660
F0.5263157894736842
sS'squared_salary_ratio'
p2661
F0.38351361970323894
sg16
I0
sS'squared_bonus'
p2662
F90000000000.0
sg18
I379
sg19
I0
sg20
I19
sg21
I152055
sS'squared_bonus_ratio'
p2663
F0.5642110813631327
sg23
I0
sS'squared_restricted_stock_ratio'
p2664
F0.24384931381501335
sg25
I300000
sS'expenses_ratio'
p2665
F0.0
sS'squared_from_this_person_to_poi_ratio'
p2666
F0.0005718336483931947
sg28
I1168042
sg29
I10
sS'squared_expenses_ratio'
p2667
F0.0
sg31
I11
sg32
I576792
sS'restricted_stock_ratio'
p2668
F0.4938110102205229
sg34
I247338
sS'bonus_ratio'
p2669
F0.7511398547295521
sg36
I399393
sS'salary_ratio'
p2670
F0.6192847646303266
sS'squared_exercised_stock_options_ratio'
p2671
F0.2562272933739676
sg39
I591250
sS'from_this_person_to_poi_ratio'
p2672
F0.02391304347826087
sS'exercised_stock_options_ratio'
p2673
F0.5061889897794771
ssS'MARTIN AMANDA K'
p2674
(dp2675
g3
I1522
sS'squared_salary'
p2676
F122141163169.0
sg5
I85430
sS'squared_from_poi_to_this_person_ratio'
p2677
F0.0012098298676748583
sg7
I8211
sS'squared_expenses'
p2678
F67420521.0
sg9
I00
sg10
I0
sg11
S'a..martin@enron.com'
p2679
sg13
I5145434
sS'from_poi_to_this_person_ratio'
p2680
F0.034782608695652174
sS'squared_salary_ratio'
p2681
F0.0017281375369189893
sg16
I0
sS'squared_bonus'
p2682
F0.0
sg18
I477
sg19
I0
sg20
I230
sg21
I2818454
sS'squared_bonus_ratio'
p2683
F0.0
sg23
I0
sS'squared_restricted_stock_ratio'
p2684
F0.0
sg25
I0
sS'expenses_ratio'
p2685
F0.0009766842361189749
sS'squared_from_this_person_to_poi_ratio'
p2686
F0.0
sg28
I2070306
sg29
I8
sS'squared_expenses_ratio'
p2687
F9.539120970833055e-07
sg31
I0
sg32
I0
sS'restricted_stock_ratio'
p2688
F0.0
sg34
I349487
sS'bonus_ratio'
p2689
F0.0
sg36
I8407016
sS'salary_ratio'
p2690
F0.04157087366076144
sS'squared_exercised_stock_options_ratio'
p2691
F1.0
sg39
I2070306
sS'from_this_person_to_poi_ratio'
p2692
F0.0
sS'exercised_stock_options_ratio'
p2693
F1.0
ssS'BUY RICHARD B'
p2694
(dp2695
g3
I3523
sS'squared_salary'
p2696
F109260658116.0
sg5
I649584
sS'squared_from_poi_to_this_person_ratio'
p2697
F0.02194787379972565
sg7
I0
sS'squared_expenses'
p2698
F0.0
sg9
I00
sg10
I694862
sg11
S'rick.buy@enron.com'
p2699
sg13
I769862
sS'from_poi_to_this_person_ratio'
p2700
F0.14814814814814814
sS'squared_salary_ratio'
p2701
F0.019688975147423127
sg16
I0
sS'squared_bonus'
p2702
F810000000000.0
sg18
I2333
sg19
I0
sg20
I1053
sg21
I400572
sS'squared_bonus_ratio'
p2703
F0.14596351646061811
sg23
I0
sS'squared_restricted_stock_ratio'
p2704
F0.06852324230229853
sg25
I900000
sS'expenses_ratio'
p2705
F0.0
sS'squared_from_this_person_to_poi_ratio'
p2706
F0.0004061546325194905
sg28
I3444470
sg29
I156
sS'squared_expenses_ratio'
p2707
F0.0
sg31
I71
sg32
I901657
sS'restricted_stock_ratio'
p2708
F0.26176944493637627
sg34
I330546
sS'bonus_ratio'
p2709
F0.38205171961479
sg36
I2355702
sS'salary_ratio'
p2710
F0.14031740856865596
sS'squared_exercised_stock_options_ratio'
p2711
F0.5449843524295459
sg39
I2542813
sS'from_this_person_to_poi_ratio'
p2712
F0.02015327845586148
sS'exercised_stock_options_ratio'
p2713
F0.7382305550636237
ssS'CAUSEY RICHARD A'
p2714
(dp2715
g3
I1892
sS'squared_salary'
p2716
F172381905721.0
sg5
I0
sS'squared_from_poi_to_this_person_ratio'
p2717
F1.4010828821324448
sg7
I30674
sS'squared_expenses'
p2718
F940894276.0
sg9
I01
sg10
I235000
sg11
S'richard.causey@enron.com'
p2719
sg13
I350000
sS'from_poi_to_this_person_ratio'
p2720
F1.183673469387755
sS'squared_salary_ratio'
p2721
F0.04936118167977787
sg16
I0
sS'squared_bonus'
p2722
F1000000000000.0
sg18
I1585
sg19
I0
sg20
I49
sg21
I307895
sS'squared_bonus_ratio'
p2723
F0.2863478128595986
sg23
I0
sS'squared_restricted_stock_ratio'
p2724
F1.0
sg25
I1000000
sS'expenses_ratio'
p2725
F0.016414110334243386
sS'squared_from_this_person_to_poi_ratio'
p2726
F4.0227239204573385e-05
sg28
I2502063
sg29
I58
sS'squared_expenses_ratio'
p2727
F0.0002694230180647155
sg31
I12
sg32
I2502063
sS'restricted_stock_ratio'
p2728
F1.0
sg34
I415189
sS'bonus_ratio'
p2729
F0.5351147660638778
sg36
I1868758
sS'salary_ratio'
p2730
F0.22217376460729532
sS'squared_exercised_stock_options_ratio'
p2731
F0.0
sg39
I0
sS'from_this_person_to_poi_ratio'
p2732
F0.006342494714587738
sS'exercised_stock_options_ratio'
p2733
F0.0
ssS'TAYLOR MITCHELL S'
p2734
(dp2735
g3
I533
sS'squared_salary'
p2736
F70338465796.0
sg5
I227449
sS'squared_from_poi_to_this_person_ratio'
p2737
F0.0
sg7
I0
sS'squared_expenses'
p2738
F0.0
sg9
I00
sg10
I0
sg11
S'mitchell.taylor@enron.com'
p2739
sg13
I0
sS'from_poi_to_this_person_ratio'
p2740
F0.0
sS'squared_salary_ratio'
p2741
F0.058914258647565575
sg16
I0
sS'squared_bonus'
p2742
F360000000000.0
sg18
I300
sg19
I0
sg20
I29
sg21
I0
sS'squared_bonus_ratio'
p2743
F0.30152965199206444
sg23
I0
sS'squared_restricted_stock_ratio'
p2744
F0.022663776832535832
sg25
I600000
sS'expenses_ratio'
p2745
F0.0
sS'squared_from_this_person_to_poi_ratio'
p2746
F0.0
sg28
I3745048
sg29
I0
sS'squared_expenses_ratio'
p2747
F0.0
sg31
I0
sg32
I563798
sS'restricted_stock_ratio'
p2748
F0.15054493293543902
sg34
I265214
sS'bonus_ratio'
p2749
F0.5491171568910085
sg36
I1092663
sS'salary_ratio'
p2750
F0.24272259607948654
sS'squared_exercised_stock_options_ratio'
p2751
F0.7215739109616578
sg39
I3181250
sS'from_this_person_to_poi_ratio'
p2752
F0.0
sS'exercised_stock_options_ratio'
p2753
F0.849455067064561
ssS'DONAHUE JR JEFFREY M'
p2754
(dp2755
g3
I865
sS'squared_salary'
p2756
F77618517201.0
sg5
I0
sS'squared_from_poi_to_this_person_ratio'
p2757
F73.02479338842974
sg7
I96268
sS'squared_expenses'
p2758
F9267527824.0
sg9
I00
sg10
I300000
sg11
S'jeff.donahue@enron.com'
p2759
sg13
I0
sS'from_poi_to_this_person_ratio'
p2760
F8.545454545454545
sS'squared_salary_ratio'
p2761
F0.10120340664825488
sg16
I0
sS'squared_bonus'
p2762
F640000000000.0
sg18
I772
sg19
I0
sg20
I22
sg21
I891
sS'squared_bonus_ratio'
p2763
F0.8344681474287253
sg23
I0
sS'squared_restricted_stock_ratio'
p2764
F0.08495067743330681
sg25
I800000
sS'expenses_ratio'
p2765
F0.1099250936329588
sS'squared_from_this_person_to_poi_ratio'
p2766
F0.0001617160613451836
sg28
I1080988
sg29
I188
sS'squared_expenses_ratio'
p2767
F0.01208352621021476
sg31
I11
sg32
I315068
sS'restricted_stock_ratio'
p2768
F0.2914629949638664
sg34
I278601
sS'bonus_ratio'
p2769
F0.9134922809902256
sg36
I875760
sS'salary_ratio'
p2770
F0.3181248287201973
sS'squared_exercised_stock_options_ratio'
p2771
F0.502024687505574
sg39
I765920
sS'from_this_person_to_poi_ratio'
p2772
F0.012716763005780347
sS'exercised_stock_options_ratio'
p2773
F0.7085370050361336
ssS'GLISAN JR BEN F'
p2774
(dp2775
g3
I873
sS'squared_salary'
p2776
F75611250625.0
sg5
I0
sS'squared_from_poi_to_this_person_ratio'
p2777
F10.5625
sg7
I125978
sS'squared_expenses'
p2778
F15870456484.0
sg9
I01
sg10
I0
sg11
S'ben.glisan@enron.com'
p2779
sg13
I71023
sS'from_poi_to_this_person_ratio'
p2780
F3.25
sS'squared_salary_ratio'
p2781
F0.046710905926632657
sg16
I0
sS'squared_bonus'
p2782
F360000000000.0
sg18
I874
sg19
I0
sg20
I16
sg21
I200308
sS'squared_bonus_ratio'
p2783
F0.22239978831969962
sg23
I0
sS'squared_restricted_stock_ratio'
p2784
F0.2558718853160793
sg25
I600000
sS'expenses_ratio'
p2785
F0.09901720056213864
sS'squared_from_this_person_to_poi_ratio'
p2786
F4.7236097825958596e-05
sg28
I778546
sg29
I52
sS'squared_expenses_ratio'
p2787
F0.00980440600716279
sg31
I6
sg32
I393818
sS'restricted_stock_ratio'
p2788
F0.5058378053448351
sg34
I274975
sS'bonus_ratio'
p2789
F0.4715928204709012
sg36
I1272284
sS'salary_ratio'
p2790
F0.21612705968164342
sS'squared_exercised_stock_options_ratio'
p2791
F0.24419627462640905
sg39
I384728
sS'from_this_person_to_poi_ratio'
p2792
F0.006872852233676976
sS'exercised_stock_options_ratio'
p2793
F0.49416219465516487
ss.