(lp0
S'poi'
p1
aS'salary'
p2
aS'to_messages'
p3
aS'deferral_payments'
p4
aS'total_payments'
p5
aS'exercised_stock_options'
p6
aS'bonus'
p7
aS'restricted_stock'
p8
aS'shared_receipt_with_poi'
p9
aS'restricted_stock_deferred'
p10
aS'total_stock_value'
p11
aS'expenses'
p12
aS'loan_advances'
p13
aS'from_messages'
p14
aS'other'
p15
aS'from_this_person_to_poi'
p16
aS'director_fees'
p17
aS'deferred_income'
p18
aS'long_term_incentive'
p19
aS'from_poi_to_this_person'
p20
aS'bonus_ratio'
p21
aS'salary_ratio'
p22
aS'expenses_ratio'
p23
aS'from_poi_to_this_person_ratio'
p24
aS'from_this_person_to_poi_ratio'
p25
aS'exercised_stock_options_ratio'
p26
aS'restricted_stock_ratio'
p27
aS'squared_salary'
p28
aS'squared_bonus'
p29
aS'squared_expenses'
p30
aS'squared_salary_ratio'
p31
aS'squared_bonus_ratio'
p32
aS'squared_expenses_ratio'
p33
aS'squared_from_poi_to_this_person_ratio'
p34
aS'squared_from_this_person_to_poi_ratio'
p35
aS'squared_exercised_stock_options_ratio'
p36
aS'squared_restricted_stock_ratio'
p37
a.